(lp0
(lp1
(lp2
(F708485683530085.0
cnumpy.core.multiarray
scalar
p3
(cnumpy
dtype
p4
(S'f8'
p5
I0
I1
tp6
Rp7
(I3
S'<'
p8
NNNI-1
I-1
I0
tp9
bS'm\x10\xb0\x83\xebw!\xc1'
p10
tp11
Rp12
(lp13
F-823549.6645
aI102
aF76.619558095932
tp14
a(F17706595566776.0
g3
(g7
S'T\x10(\xa2]$\x0c\xc1'
p15
tp16
Rp17
g13
F76.59108304977417
tp18
a(F10769264915986.0
g3
(g7
S'\x1a\xbc\x98l\xe3/\x1a\xc1'
p19
tp20
Rp21
g13
F76.5663549900055
tp22
a(F12061665031186.0
g3
(g7
S'\xa4LR\xd6d\x07%\xc1'
p23
tp24
Rp25
g13
F76.44762110710144
tp26
a(F54199509571769.0
g3
(g7
S'\xac\x8f\xbe\x13\xc1\x9f!\xc1'
p27
tp28
Rp29
g13
F76.29621982574463
tp30
a(F24213815517733.0
g3
(g7
S'\x10\\\x1e&\xb4c%\xc1'
p31
tp32
Rp33
g13
F76.39195895195007
tp34
a(F108929311187070.0
g3
(g7
S'\xac\xab\x8e\x83\xb4\xc6 \xc1'
p35
tp36
Rp37
g13
F76.44577121734619
tp38
a(F68344068228698.0
g3
(g7
S'n\xa2\xe4\x83\xe9\n(\xc1'
p39
tp40
Rp41
g13
F76.38709712028503
tp42
a(F21241180498335.0
g3
(g7
S'\xc21>0`\xbd$\xc1'
p43
tp44
Rp45
g13
F76.37632203102112
tp46
a(F6095725558897.0
g3
(g7
S'nq\x8b\xfaG\x04%\xc1'
p47
tp48
Rp49
g13
F76.46530294418335
tp50
a(F16056749716991.0
g3
(g7
S'6:\xdc\x16\xcaJ$\xc1'
p51
tp52
Rp53
g13
F76.4076759815216
tp54
a(F11786141144790.0
g3
(g7
S'Z\xfd\x13\\Z;&\xc1'
p55
tp56
Rp57
g13
F76.45376110076904
tp58
a(F131275591309840.0
g3
(g7
S'\xb4\xf3\x01\x18d\xa9\x0e\xc1'
p59
tp60
Rp61
g13
F76.42299222946167
tp62
a(F40368144055394.0
g3
(g7
S'\xac\x83\x06U?y\x17\xc1'
p63
tp64
Rp65
g13
F76.58873581886292
tp66
a(F8520532703200.0
g3
(g7
S"\x03\x1b\xefH\x1e\xd2'\xc1"
p67
tp68
Rp69
g13
F76.58015084266663
tp70
a(F7581629976809.0
g3
(g7
S'Y\x08\xe5\xa4`\xde\x18\xc1'
p71
tp72
Rp73
g13
F76.44951605796814
tp74
a(F10426861039506.0
g3
(g7
S'\x1a\xd9\xf0\x86\x99\x07 \xc1'
p75
tp76
Rp77
g13
F76.40827298164368
tp78
a(F19343875050739.0
g3
(g7
S'\x94\x85K\xa2\x1b*\x1c\xc1'
p79
tp80
Rp81
g13
F76.36697196960449
tp82
a(F106375717187812.0
g3
(g7
S'\x08\x03e4\x95.$\xc1'
p83
tp84
Rp85
g13
F76.38258290290833
tp86
a(F15112848622223.0
g3
(g7
S'\xbe\xd1=.\xfd\x87&\xc1'
p87
tp88
Rp89
g13
F76.36800193786621
tp90
a(F110064002213538.0
g3
(g7
S'\xfd\xe5\xd9\xe2\xcd\x9c\x17\xc1'
p91
tp92
Rp93
g13
F76.46472716331482
tp94
a(F15808728970872.0
g3
(g7
S'f\xdd}\xfe\xa4\xcc\x1a\xc1'
p95
tp96
Rp97
g13
F76.16345596313477
tp98
a(F76649846021712.0
g3
(g7
S'\xd2\x01\xdb\x12G\xe5&\xc1'
p99
tp100
Rp101
g13
F76.19279289245605
tp102
a(F10646619838499.0
g3
(g7
S'\x87\x85(M\x04\x10\x15\xc1'
p103
tp104
Rp105
g13
F76.2051191329956
tp106
a(F19790394108308.0
g3
(g7
S'\xc4\x8d\xbf\xf1\x89l\x00\xc1'
p107
tp108
Rp109
g13
F76.25117707252502
tp110
a(F28444609360387.0
g3
(g7
S'2\x8f\x96\xc8\x0e\xcd!\xc1'
p111
tp112
Rp113
g13
F76.17876720428467
tp114
a(F2390733027870.0
g3
(g7
S'\xaf0\x81\x1e\x01\xb9(\xc1'
p115
tp116
Rp117
g13
F76.17467284202576
tp118
a(F8241117707387.0
g3
(g7
S'\x1fR\xb6~P\xc7&\xc1'
p119
tp120
Rp121
g13
F76.2464988231659
tp122
a(F33682211451071.0
g3
(g7
S'\xb4IWh\xd6\xc6\x1f\xc1'
p123
tp124
Rp125
g13
F76.2284209728241
tp126
a(F102905908571766.0
g3
(g7
S'(\x87\xb0\xe2\xe7\xe2 \xc1'
p127
tp128
Rp129
g13
F76.15596103668213
tp130
a(F79041669529915.0
g3
(g7
S'X\x12y\x1a\x9f\x8a%\xc1'
p131
tp132
Rp133
g13
F76.17711997032166
tp134
a(F17040599280017.0
g3
(g7
S'4\xc9\xa1\xe0\x15\x89&\xc1'
p135
tp136
Rp137
g13
F76.13212990760803
tp138
a(F19753962944531.0
g3
(g7
S'\xbc\x05\x83W\x84\xa6 \xc1'
p139
tp140
Rp141
g13
F76.15207195281982
tp142
a(F72715827644850.0
g3
(g7
S'/z{4\xb6\xe1&\xc1'
p143
tp144
Rp145
g13
F76.22633790969849
tp146
a(F31288260671976.0
g3
(g7
S'\x99\x85Eq$k(\xc1'
p147
tp148
Rp149
g13
F76.19053196907043
tp150
a(F10443053006991.0
g3
(g7
S'6\xe82~\x1d\xf2&\xc1'
p151
tp152
Rp153
g13
F76.17422080039978
tp154
a(F27708713419760.0
g3
(g7
S'\xc8l\xe2\xad,\x9b#\xc1'
p155
tp156
Rp157
g13
F76.23125386238098
tp158
a(F17153160822863.0
g3
(g7
S'\x987a\xa3Zo&\xc1'
p159
tp160
Rp161
g13
F76.22327613830566
tp162
a(F5262373360033.0
g3
(g7
S'Bf\xf6\xc4@Z(\xc1'
p163
tp164
Rp165
g13
F76.2154471874237
tp166
a(F15473652249936.0
g3
(g7
S'\xda\xff\x86-\xa7\xcb\x1e\xc1'
p167
tp168
Rp169
g13
F76.1557400226593
tp170
a(F87350226409202.0
g3
(g7
S'\xfcF\x1d\x99Vw\x05\xc1'
p171
tp172
Rp173
g13
F76.32711601257324
tp174
a(F30552452398670.0
g3
(g7
S'\xfa\x9d\x8b9\x00o$\xc1'
p175
tp176
Rp177
g13
F76.4097101688385
tp178
a(F9391994696540.0
g3
(g7
S'\xbb\xc4\x07\x1b\x08\x8d%\xc1'
p179
tp180
Rp181
g13
F76.56972908973694
tp182
a(F89553105067526.0
g3
(g7
S'\xa3\x1e\xf2@\xfb\x1e)\xc1'
p183
tp184
Rp185
g13
F76.50594592094421
tp186
a(F18954093814284.0
g3
(g7
S'Y\xebfdc&\x1a\xc1'
p187
tp188
Rp189
g13
F76.46413707733154
tp190
a(F4968119494774.0
g3
(g7
S'&Y\xd5C\x83o&\xc1'
p191
tp192
Rp193
g13
F76.41326093673706
tp194
a(F193051478054634.0
g3
(g7
S'\xedm)\x016\xbc\x13\xc1'
p195
tp196
Rp197
g13
F76.43496203422546
tp198
a(F93867184749050.0
g3
(g7
S'\xae\x94\xb4N\xe8\xb2"\xc1'
p199
tp200
Rp201
g13
F76.14471292495728
tp202
a(F31280483962857.0
g3
(g7
S'\xf5\xb9\x82q{\xf7&\xc1'
p203
tp204
Rp205
g13
F76.1278190612793
tp206
a(F11235894981034.0
g3
(g7
S'\xcc~\x8c\xd25\xa4\x1c\xc1'
p207
tp208
Rp209
g13
F76.18773984909058
tp210
a(F314565079426641.0
g3
(g7
S'\xb4\xfa\xe3\x96\x13\x97(\xc1'
p211
tp212
Rp213
g13
F76.25136995315552
tp214
a(F55673493532954.0
g3
(g7
S'\x18(;\xbf\xe9\r!\xc1'
p215
tp216
Rp217
g13
F76.1592128276825
tp218
a(F13433735491525.0
g3
(g7
S'\x19\xd3\xc8\xa0\x8f\xcf%\xc1'
p219
tp220
Rp221
g13
F76.15543913841248
tp222
a(F7937005879142.0
g3
(g7
S'Z\xb4\xac\xe8@\xd8%\xc1'
p223
tp224
Rp225
g13
F76.18752813339233
tp226
a(F87936919140301.0
g3
(g7
S'\xb40\n\xa2\xa3p\x13\xc1'
p227
tp228
Rp229
g13
F76.14851307868958
tp230
a(F8842212404425.0
g3
(g7
S'\xf3\x15Yqp\xca\x18\xc1'
p231
tp232
Rp233
g13
F76.21669816970825
tp234
a(F86850583249634.0
g3
(g7
S"\xe2\xaen\x05Z\x05'\xc1"
p235
tp236
Rp237
g13
F76.18883204460144
tp238
a(F23595716146053.0
g3
(g7
S"\xa6A\x85d\xcfI'\xc1"
p239
tp240
Rp241
g13
F76.16730618476868
tp242
a(F112963140065456.0
g3
(g7
S'c\x01\xf7~N3%\xc1'
p243
tp244
Rp245
g13
F76.12137699127197
tp246
a(F6782731707452.0
g3
(g7
S'\xf8e\x85`q\xaa\n\xc1'
p247
tp248
Rp249
g13
F76.19859981536865
tp250
a(F34774890048462.0
g3
(g7
S'\x0ck\x81m h\x06\xc1'
p251
tp252
Rp253
g13
F76.27052998542786
tp254
a(F4284154331688.0
g3
(g7
S'\x84\x87\xc6\xb5\xa5\x86\x1c\xc1'
p255
tp256
Rp257
g13
F76.24338889122009
tp258
a(F6993728029149.0
g3
(g7
S'\x8dW\xa9\xc9\xaaP\x1f\xc1'
p259
tp260
Rp261
g13
F76.26601600646973
tp262
a(F96430604526424.0
g3
(g7
S'\xc6fH\xb2Z\xe6"\xc1'
p263
tp264
Rp265
g13
F76.19123411178589
tp266
a(F41299364376870.0
g3
(g7
S'\xb3\xaf\x15\tX\x10)\xc1'
p267
tp268
Rp269
g13
F76.2640209197998
tp270
a(F25027594141673.0
g3
(g7
S'g\xc9\x85\x81t\x12\x13\xc1'
p271
tp272
Rp273
g13
F76.17272710800171
tp274
a(F15404977531148.0
g3
(g7
S'\xdf\xbd\xbe`\x88\x1f"\xc1'
p275
tp276
Rp277
g13
F76.18545413017273
tp278
a(F3690006476661913.0
g3
(g7
S"*Y)'k\xa5#\xc1"
p279
tp280
Rp281
g13
F76.18455410003662
tp282
a(F70031353234582.0
g3
(g7
S'\x10\xdc\xcc\x9a\xa8\xd6\x1a\xc1'
p283
tp284
Rp285
g13
F76.32920289039612
tp286
a(F26833548924995.0
g3
(g7
S'\x83L\xee-`\xad"\xc1'
p287
tp288
Rp289
g13
F76.20884609222412
tp290
a(F36405313837252.0
g3
(g7
S"\xf5\xbf\x17\xa7\x14I'\xc1"
p291
tp292
Rp293
g13
F76.17663908004761
tp294
a(F7413192362626.0
g3
(g7
S'H\xf5\x0f\x9f\x0f\x1d(\xc1'
p295
tp296
Rp297
g13
F76.20948886871338
tp298
a(F40929508428730.0
g3
(g7
S'\xe3\xe8 \x07:\xb1%\xc1'
p299
tp300
Rp301
g13
F76.15403509140015
tp302
a(F460148919170109.0
g3
(g7
S'\xfc\xd5\xf6Y\x00\xb2"\xc1'
p303
tp304
Rp305
g13
F76.15851306915283
tp306
a(F371586766860948.0
g3
(g7
S"\r\x9bO\xb3\x98f'\xc1"
p307
tp308
Rp309
g13
F76.11812901496887
tp310
a(F45395347453427.0
g3
(g7
S'\xd8\xfa\xd2\xeb\x01\xcf\x1e\xc1'
p311
tp312
Rp313
g13
F76.17062520980835
tp314
a(F21961492906825.0
g3
(g7
S"%Ci\x1a\xe7#'\xc1"
p315
tp316
Rp317
g13
F76.11908292770386
tp318
a(F111708614838289.0
g3
(g7
S'\xe9[\xa6\xa2\x9a\xa4\x1a\xc1'
p319
tp320
Rp321
g13
F76.18215012550354
tp322
a(F92774680142577.0
g3
(g7
S'\xd8=uW\xd1\xb5 \xc1'
p323
tp324
Rp325
g13
F76.22605204582214
tp326
a(F134850779392498.0
g3
(g7
S"\xcb}x\x85)R'\xc1"
p327
tp328
Rp329
g13
F76.43062806129456
tp330
a(F5972034836499.0
g3
(g7
S'P\x82a\x0c\x92\x1a&\xc1'
p331
tp332
Rp333
g13
F76.7482328414917
tp334
a(F46303740711337.0
g3
(g7
S'\xf3\'}a\x8a\xed"\xc1'
p335
tp336
Rp337
g13
F76.82508897781372
tp338
a(F29966888949760.0
g3
(g7
S'\xaa5\xf1\xcc1\xb3"\xc1'
p339
tp340
Rp341
g13
F76.58948802947998
tp342
a(F4675701420093.0
g3
(g7
S'4\xfe\x8d.\x91\\\x1e\xc1'
p343
tp344
Rp345
g13
F76.23183798789978
tp346
a(F110960526177772.0
g3
(g7
S'L\x8d\xfc\xee\x95K$\xc1'
p347
tp348
Rp349
g13
F76.24532794952393
tp350
a(F14242645363189.0
g3
(g7
S'J/\xe8\xe1\x9d\xe3\x12\xc1'
p351
tp352
Rp353
g13
F76.16603088378906
tp354
a(F15090520483754.0
g3
(g7
S'1\x889\xb4M\xc9#\xc1'
p355
tp356
Rp357
g13
F76.18739604949951
tp358
a(F57976424734725.0
g3
(g7
S'\xcf\xba\xcaec2\x13\xc1'
p359
tp360
Rp361
g13
F76.12669897079468
tp362
a(F8857797974638.0
g3
(g7
S'\xd6\x9b3_\xdeE\x1e\xc1'
p363
tp364
Rp365
g13
F76.1245219707489
tp366
a(F465945348144232.0
g3
(g7
S'\xec\xf0\x90\xaa\xe1\xf7&\xc1'
p367
tp368
Rp369
g13
F76.1455647945404
tp370
a(F9143899508604.0
g3
(g7
S'Q\x07\x98\xe3\xf5\x83\x1d\xc1'
p371
tp372
Rp373
g13
F76.15561413764954
tp374
a(F65455069499705.0
g3
(g7
S'\xdcMo\xa9\xaav!\xc1'
p375
tp376
Rp377
g13
F76.15780401229858
tp378
a(F40493804506651.0
g3
(g7
S'B\x95\xd5\xbd,i(\xc1'
p379
tp380
Rp381
g13
F76.1537401676178
tp382
a(F127091271340211.0
g3
(g7
S'\xd4W\xda\xbb\x02\xb6&\xc1'
p383
tp384
Rp385
g13
F76.21683406829834
tp386
a(F7578879615663.0
g3
(g7
S'8\x7fC/+\xe4 \xc1'
p387
tp388
Rp389
g13
F76.12925386428833
tp390
a(F9846314969101.0
g3
(g7
S'I\x9dt\xe7:u$\xc1'
p391
tp392
Rp393
g13
F76.23042798042297
tp394
a(F27723904679148.0
g3
(g7
S'.\xfdD\xf0N\xdb \xc1'
p395
tp396
Rp397
g13
F76.27791500091553
tp398
a(F17497562039448.0
g3
(g7
S'\xde\xc4\xbf\xce;\x03(\xc1'
p399
tp400
Rp401
g13
F76.1907410621643
tp402
a(F6466707218004.0
g3
(g7
S'/\x84jr\xe2w%\xc1'
p403
tp404
Rp405
g13
F76.1935179233551
tp406
a(F107793807239226.0
g3
(g7
S'4u-\xc6\xfb\xab(\xc1'
p407
tp408
Rp409
g13
F76.21904397010803
tp410
aaI80
aI29
aF0.7776598930358887
aa(lp411
(lp412
(F9716.0
g3
(g7
S'T\xd5\xac\xc9\xed\x9a\x07B'
p413
tp414
Rp415
(lp416
F1.0
aF17000000000.0
aF117.02980899810791
tp417
a(F91944.0
g3
(g7
S'>\xd4\xa0\xdc\xeem\x07B'
p418
tp419
Rp420
g416
F116.1665050983429
tp421
a(F2416.0
g3
(g7
S'\xcd\xe9:<"+\xf7A'
p422
tp423
Rp424
g416
F116.14916181564331
tp425
a(F5409.0
g3
(g7
S'H\xa37\xe6y\\\xb9A'
p426
tp427
Rp428
g416
F116.35493016242981
tp429
a(F26877.0
g3
(g7
S'i\x9c\x9c4\xc8\x86\x01B'
p430
tp431
Rp432
g416
F117.23069882392883
tp433
a(F7325.0
g3
(g7
S'\xe8\x00\x1eR\x9e\x9a\xf2A'
p434
tp435
Rp436
g416
F117.218514919281
tp437
a(F19341.0
g3
(g7
S'X4\xc6\x9bfY\xe7A'
p438
tp439
Rp440
g416
F117.2375020980835
tp441
a(F5706.0
g3
(g7
S'\xbf\xae\x82\xe8\x18H\xf8A'
p442
tp443
Rp444
g416
F117.29875302314758
tp445
a(F338232.0
g3
(g7
S'\x9c\x9d\xf2u.\xd7\xebA'
p446
tp447
Rp448
g416
F117.29167103767395
tp449
a(F4851.0
g3
(g7
S'$\x18@\x06\x1ao\x0eB'
p450
tp451
Rp452
g416
F117.24277997016907
tp453
a(F5801.0
g3
(g7
S'7\xd7\xa8DX%\xf4A'
p454
tp455
Rp456
g416
F117.30028080940247
tp457
a(F1492.0
g3
(g7
S'\x8b\x81\x16\xbdz\t\nB'
p458
tp459
Rp460
g416
F116.9232611656189
tp461
a(F3871.0
g3
(g7
S'\x11R\x8f\x9f\xa0\x00\tB'
p462
tp463
Rp464
g416
F117.15676522254944
tp465
a(F8513.0
g3
(g7
S'2\xb6\x94X\xce\xd8\x06B'
p466
tp467
Rp468
g416
F117.1826069355011
tp469
a(F7307.0
g3
(g7
S'1\xea\xedj\xe0\xf2\xfaA'
p470
tp471
Rp472
g416
F117.1584050655365
tp473
a(F9178.0
g3
(g7
S'\x93UD\xc2l\x07\nB'
p474
tp475
Rp476
g416
F117.23225712776184
tp477
a(F3985.0
g3
(g7
S'\xef!\xcb/\xc6\xbb\xe9A'
p478
tp479
Rp480
g416
F117.25378608703613
tp481
a(F4741.0
g3
(g7
S'\x8by\x14g\xea6\xfeA'
p482
tp483
Rp484
g416
F117.19826006889343
tp485
a(F3938.0
g3
(g7
S'\xd8i\x8bT\x9b\x05\tB'
p486
tp487
Rp488
g416
F117.22144794464111
tp489
a(F4496.0
g3
(g7
S'\xeb\x83\xa2\x11\xcd\x9e\tB'
p490
tp491
Rp492
g416
F117.16232395172119
tp493
a(F11229.0
g3
(g7
S'T`cc\x1d4\xeaA'
p494
tp495
Rp496
g416
F117.0874400138855
tp497
a(F6934.0
g3
(g7
S'\xca:;\xc3\r\xdb\xf1A'
p498
tp499
Rp500
g416
F116.9603660106659
tp501
a(F7411.0
g3
(g7
S'$\xb3\xf1\xb8\xe7P\xe6A'
p502
tp503
Rp504
g416
F116.8775200843811
tp505
a(F2122.0
g3
(g7
S'\xa7\x03\x8f\x10:\x19\xf3A'
p506
tp507
Rp508
g416
F116.87578916549683
tp509
a(F8038.0
g3
(g7
S'\t|\x9f\x18S\xde\x03B'
p510
tp511
Rp512
g416
F116.74392986297607
tp513
a(F1587.0
g3
(g7
S'\xaf\xd1\xcduC\x93\xf1A'
p514
tp515
Rp516
g416
F116.08916306495667
tp517
a(F2208.0
g3
(g7
S'\xf6i\xe7\xb9\x8d\xcd\tB'
p518
tp519
Rp520
g416
F116.22306990623474
tp521
a(F11079.0
g3
(g7
S'\x1e\xf3\x17\xb7\x1d#\xf5A'
p522
tp523
Rp524
g416
F116.2825059890747
tp525
a(F5055.0
g3
(g7
S'b\xd9X\x1f6\x96\xfdA'
p526
tp527
Rp528
g416
F116.23547601699829
tp529
a(F45176.0
g3
(g7
S'\xf6\xb6\xef\x9d\xed\x1f\x08B'
p530
tp531
Rp532
g416
F116.24122595787048
tp533
a(F2558.0
g3
(g7
S'\xea\xad\xcb\xe6I\xd2\xf1A'
p534
tp535
Rp536
g416
F116.31587195396423
tp537
a(F31224.0
g3
(g7
S'\xc2\xac\xf0\xea\xd5\xb9\tB'
p538
tp539
Rp540
g416
F116.2677628993988
tp541
a(F1325.0
g3
(g7
S'\x87\xbd_9\x96\x97\x05B'
p542
tp543
Rp544
g416
F116.28973507881165
tp545
a(F3050.0
g3
(g7
S'\x18\xff\xfd\xffV\x1d\x04B'
p546
tp547
Rp548
g416
F116.2706298828125
tp549
a(F1578597.0
g3
(g7
S'\xc2\x9dbK\x0f#\x08B'
p550
tp551
Rp552
g416
F116.29781699180603
tp553
a(F52992.0
g3
(g7
S'I\xcc\xca\x0c\x9f\x99\xe9A'
p554
tp555
Rp556
g416
F116.31444001197815
tp557
a(F4359.0
g3
(g7
S'\xd0.\xd9\xe4\xed\xac\xf6A'
p558
tp559
Rp560
g416
F116.3342170715332
tp561
a(F3279.0
g3
(g7
S'\xb7\x9dl:\x04\x82\xfbA'
p562
tp563
Rp564
g416
F116.24857711791992
tp565
a(F195718.0
g3
(g7
S'\xc1"\x9fv\xd9\xe4\x07B'
p566
tp567
Rp568
g416
F116.19652605056763
tp569
a(F71065.0
g3
(g7
S'Y\xf8\xeeh\x01*\x00B'
p570
tp571
Rp572
g416
F116.27630805969238
tp573
a(F2110.0
g3
(g7
S'\xaf\xc2\x87\xb6\xc4\xf9\xaeA'
p574
tp575
Rp576
g416
F116.4161958694458
tp577
a(F1868.0
g3
(g7
S'\x10\x8b`\xc7\xd1Z\xf2A'
p578
tp579
Rp580
g416
F116.34120011329651
tp581
a(F25025.0
g3
(g7
S'\xe7\x18\xe7\x18\x15\xe7\xfeA'
p582
tp583
Rp584
g416
F116.36739921569824
tp585
a(F5859.0
g3
(g7
S'\x84\x81\xec\x83\xb9\xc7\xd7A'
p586
tp587
Rp588
g416
F116.38740611076355
tp589
a(F2103.0
g3
(g7
S'/%\x9e\xb3W\xb7\xe8A'
p590
tp591
Rp592
g416
F116.4490659236908
tp593
a(F3574.0
g3
(g7
S'\x869\x19\xbc=\x1d\x00B'
p594
tp595
Rp596
g416
F116.48843502998352
tp597
a(F2417.0
g3
(g7
S'\x94"|\xfbO\x15\x06B'
p598
tp599
Rp600
g416
F116.4597818851471
tp601
a(F10314.0
g3
(g7
S'Ak\xe2\x93\x1bD\x05B'
p602
tp603
Rp604
g416
F116.41024398803711
tp605
a(F1110.0
g3
(g7
S'\xa6\x03ay\x12\x96\xd5A'
p606
tp607
Rp608
g416
F116.36202502250671
tp609
a(F3458.0
g3
(g7
S':\xa1\xb9&[\xc8\x00B'
p610
tp611
Rp612
g416
F116.40316700935364
tp613
a(F3673.0
g3
(g7
S'}\xbc\xc2~\xb8\x1f\xa5A'
p614
tp615
Rp616
g416
F116.4520890712738
tp617
a(F5377.0
g3
(g7
S'q9\xbc\xe7\xdf\x93\x01B'
p618
tp619
Rp620
g416
F116.3969669342041
tp621
a(F2111.0
g3
(g7
S'\x80\x7f\xfa\x01\x01l\xe2A'
p622
tp623
Rp624
g416
F116.32766699790955
tp625
a(F122045.0
g3
(g7
S'0\xa1\x1bP\xd5\xc7\x08B'
p626
tp627
Rp628
g416
F116.52579188346863
tp629
a(F54478.0
g3
(g7
S'@=XUzl\xd3A'
p630
tp631
Rp632
g416
F116.35441994667053
tp633
a(F19739.0
g3
(g7
S'\x837\xf3\x95S\xe0\x03B'
p634
tp635
Rp636
g416
F116.33691596984863
tp637
a(F8951.0
g3
(g7
S'\x93\xde"\x95\x82J\xfaA'
p638
tp639
Rp640
g416
F116.30795288085938
tp641
a(F3747.0
g3
(g7
S'\x93%V\xd6\x1e\xef\xf1A'
p642
tp643
Rp644
g416
F116.40841603279114
tp645
a(F7557.0
g3
(g7
S'\x8e#"\xf0\x90\xa6\xf0A'
p646
tp647
Rp648
g416
F116.34851098060608
tp649
a(F48241.0
g3
(g7
S'.G\x9f/4?\nB'
p650
tp651
Rp652
g416
F116.37834215164185
tp653
a(F5998.0
g3
(g7
S'M:\xd1\xdb\xa6M\xfaA'
p654
tp655
Rp656
g416
F116.3692238330841
tp657
a(F14797.0
g3
(g7
S'=\xd4\xf5\xd54\n\x00B'
p658
tp659
Rp660
g416
F116.44108414649963
tp661
a(F2011.0
g3
(g7
S'\xeb\xf4!\xe9V\xe4\xe0A'
p662
tp663
Rp664
g416
F116.32038307189941
tp665
a(F20440.0
g3
(g7
S'I\x83PT\xb3P\xf2A'
p666
tp667
Rp668
g416
F116.33608484268188
tp669
a(F10399.0
g3
(g7
S'\nM\xdf\xba\x13\x8c\xffA'
p670
tp671
Rp672
g416
F116.12055802345276
tp673
a(F1104.0
g3
(g7
S'\x80Lh\xa3\xb9\xa0\x03B'
p674
tp675
Rp676
g416
F116.14690709114075
tp677
a(F3978.0
g3
(g7
S'\x97I(\\\xb4\xb7\x05B'
p678
tp679
Rp680
g416
F116.0710289478302
tp681
a(F1463.0
g3
(g7
S'\xdc\xb1\xffs\xe0\x96\xe2A'
p682
tp683
Rp684
g416
F116.11704301834106
tp685
a(F27424.0
g3
(g7
S'\xd6\x1c\xb4\xf7G\x81\xecA'
p686
tp687
Rp688
g416
F116.02714705467224
tp689
a(F2533.0
g3
(g7
S'\x18{\xc0\x1c\x85u\x0fB'
p690
tp691
Rp692
g416
F116.03953003883362
tp693
a(F1349.0
g3
(g7
S'*eX\x8c\xccV\xefA'
p694
tp695
Rp696
g416
F115.99766707420349
tp697
a(F1565.0
g3
(g7
S'\xe2\xe3m\x82\xafU\rB'
p698
tp699
Rp700
g416
F116.00079989433289
tp701
a(F1473.0
g3
(g7
S'\xee\xda<F\xe9\r\x03B'
p702
tp703
Rp704
g416
F116.00931000709534
tp705
a(F50565.0
g3
(g7
S'\x04\xd69\xed\x08\x13\xf0A'
p706
tp707
Rp708
g416
F116.04611086845398
tp709
a(F8425.0
g3
(g7
S'\xc3\xfcG\x93$<\xfcA'
p710
tp711
Rp712
g416
F115.97100496292114
tp713
a(F20952.0
g3
(g7
S'T\x9b\xbb\x8a\xb7\xee\xecA'
p714
tp715
Rp716
g416
F116.01766896247864
tp717
a(F4817.0
g3
(g7
S'w\xdf\xd4\xcb-\xde\xfdA'
p718
tp719
Rp720
g416
F115.97890210151672
tp721
a(F9291.0
g3
(g7
S'\xea,\xf5\xd4\x90F\xe1A'
p722
tp723
Rp724
g416
F116.13413095474243
tp725
a(F3726.0
g3
(g7
S'\tw+\xae\xdf\x19\x0fB'
p726
tp727
Rp728
g416
F116.11136603355408
tp729
a(F4470.0
g3
(g7
S'\x0e\x85\xf6\xb5\\i\xfeA'
p730
tp731
Rp732
g416
F115.97338700294495
tp733
a(F3930.0
g3
(g7
S'`\x86\xc6\xa9\xe43\rB'
p734
tp735
Rp736
g416
F116.01346492767334
tp737
a(F20744.0
g3
(g7
S'\xa9\xf3u\x9a\xee\xed\x02B'
p738
tp739
Rp740
g416
F115.97785997390747
tp741
a(F7410.0
g3
(g7
S' \x84\xb8f\x0f\xcb\xeaA'
p742
tp743
Rp744
g416
F115.9653971195221
tp745
a(F9986.0
g3
(g7
S'\r\x85\xab\x01\xc3<\rB'
p746
tp747
Rp748
g416
F116.05457401275635
tp749
a(F44298.0
g3
(g7
S'\x9d^:^\x8fN\x01B'
p750
tp751
Rp752
g416
F116.0404281616211
tp753
a(F56281.0
g3
(g7
S'\x802\x96#2M\xf5A'
p754
tp755
Rp756
g416
F116.24298691749573
tp757
a(F3463.0
g3
(g7
S'\xa7gJt\x97W\xecA'
p758
tp759
Rp760
g416
F116.5545551776886
tp761
a(F1642.0
g3
(g7
S'w+%\xb0\x1f\xab\xf1A'
p762
tp763
Rp764
g416
F116.60735511779785
tp765
a(F2984.0
g3
(g7
S'\x83\xe2@\xa4\xc1\x18\x05B'
p766
tp767
Rp768
g416
F116.63844990730286
tp769
a(F66932.0
g3
(g7
S'\x86Ws\xc8^Q\x0fB'
p770
tp771
Rp772
g416
F116.66885805130005
tp773
a(F37515.0
g3
(g7
S'Y\x8bX\x0f\xc6\xe6\xfbA'
p774
tp775
Rp776
g416
F116.52100205421448
tp777
a(F2894.0
g3
(g7
S'Q\xd3d\xe2\xa1\xe4\xd9A'
p778
tp779
Rp780
g416
F116.4171199798584
tp781
a(F4288.0
g3
(g7
S'\x1a@y=\xcd\xbf\xe3A'
p782
tp783
Rp784
g416
F116.46736192703247
tp785
a(F2926.0
g3
(g7
S'\xb1dd=!\x98\x01B'
p786
tp787
Rp788
g416
F116.36855697631836
tp789
a(F226460.0
g3
(g7
S'\xb0`\xcf\x8aj\xc5\xceA'
p790
tp791
Rp792
g416
F116.43592500686646
tp793
a(F1904.0
g3
(g7
S'95\xbf\x17\xce\xc4\tB'
p794
tp795
Rp796
g416
F116.41623711585999
tp797
a(F2660.0
g3
(g7
S'\xf2\xa5\xee\x0b__\tB'
p798
tp799
Rp800
g416
F116.53208899497986
tp801
a(F4926.0
g3
(g7
S')q\x8a\x02e\xfa\xc8A'
p802
tp803
Rp804
g416
F116.56701803207397
tp805
a(F1250.0
g3
(g7
S'\x1dK\xd2O\x17\xf7\xe0A'
p806
tp807
Rp808
g416
F116.51946306228638
tp809
a(F5357.0
g3
(g7
S'\xc8\x0e\x02_;N\x01B'
p810
tp811
Rp812
g416
F116.39267802238464
tp813
aaI120
aI34
aF1.574786901473999
aa(lp814
(lp815
(F147740.0
g3
(g7
S'\xb7\xd9\xf0\xb28\x1e\xf2A'
p816
tp817
Rp818
(lp819
F1.0
aF17000000000.0
aF111.76717901229858
tp820
a(F970.0
g3
(g7
S'\xcb\xba@\x83\xb5\x03\xf0A'
p821
tp822
Rp823
g819
F111.61768794059753
tp824
a(F2878.0
g3
(g7
S'\xc9\xa7c\xcf\x86\x83\x0cB'
p825
tp826
Rp827
g819
F111.90063714981079
tp828
a(F4170.0
g3
(g7
S'\xf2\x9c\xb4W\xc5\x17\x0eB'
p829
tp830
Rp831
g819
F112.42149686813354
tp832
a(F21732.0
g3
(g7
S'~`\x8d\xae\x1a%\x04B'
p833
tp834
Rp835
g819
F112.61948490142822
tp836
a(F16394.0
g3
(g7
S'\x8a\xfft:\x95S\xf6A'
p837
tp838
Rp839
g819
F112.44619798660278
tp840
a(F2842.0
g3
(g7
S'R\xda\x03\xbf\x0c\xa4\xecA'
p841
tp842
Rp843
g819
F112.78829002380371
tp844
a(F7391.0
g3
(g7
S'C\x8b\xa3\xe9\xe2\x93\xf5A'
p845
tp846
Rp847
g819
F112.67617392539978
tp848
a(F23044.0
g3
(g7
S'v\x00e}\x99\xc2\xf6A'
p849
tp850
Rp851
g819
F112.5573959350586
tp852
a(F58995.0
g3
(g7
S'\xc5\r\xcb\xb9\x0f\xe4\xefA'
p853
tp854
Rp855
g819
F112.53571081161499
tp856
a(F17489.0
g3
(g7
S'?;\xf5\xaf]n\xeeA'
p857
tp858
Rp859
g819
F112.50917100906372
tp860
a(F2824.0
g3
(g7
S'\x08\xe0\x9f(\x94\x9e\xfeA'
p861
tp862
Rp863
g819
F112.59937906265259
tp864
a(F1614.0
g3
(g7
S'\xc3B\x01\xf4\xb9\x8d\xe9A'
p865
tp866
Rp867
g819
F112.54867911338806
tp868
a(F93913.0
g3
(g7
S'\x0c\x16\xeb\xa1\x13\xee\xf4A'
p869
tp870
Rp871
g819
F112.79074287414551
tp872
a(F19959.0
g3
(g7
S'h"\xb5\xbe\xbe?\xd3A'
p873
tp874
Rp875
g819
F113.11224794387817
tp876
a(F2246.0
g3
(g7
S'\xb8sCN\xae=\xf5A'
p877
tp878
Rp879
g819
F112.9805679321289
tp880
a(F1056955.0
g3
(g7
S'\x08\xa4\x05o\x97)\xe7A'
p881
tp882
Rp883
g819
F112.94490194320679
tp884
a(F4881.0
g3
(g7
S'\xecq\xbcT\xb3\xbc\xebA'
p885
tp886
Rp887
g819
F112.55011200904846
tp888
a(F5590.0
g3
(g7
S'\xc2r!\\\xcf\xf5\x01B'
p889
tp890
Rp891
g819
F112.52663207054138
tp892
a(F15080.0
g3
(g7
S'\xbc\xf0|\xa7J\x83\x0bB'
p893
tp894
Rp895
g819
F112.46201300621033
tp896
a(F2985.0
g3
(g7
S'$5\xd4\xd6o\xdd\xf4A'
p897
tp898
Rp899
g819
F112.46332311630249
tp900
a(F4750.0
g3
(g7
S'\xb8gw3\xafK\x04B'
p901
tp902
Rp903
g819
F112.6019959449768
tp904
a(F229107.0
g3
(g7
S'\x01\xad/\x1a\x10\x95\xf0A'
p905
tp906
Rp907
g819
F112.44350099563599
tp908
a(F72916.0
g3
(g7
S'\xdd1$4\xeb\xcc\x06B'
p909
tp910
Rp911
g819
F112.55400109291077
tp912
a(F2879.0
g3
(g7
S'h*{c\x88>\xfcA'
p913
tp914
Rp915
g819
F112.60182094573975
tp916
a(F2141.0
g3
(g7
S'\xb5/\x80\xcf\xe5\x1a\rB'
p917
tp918
Rp919
g819
F112.56967282295227
tp920
a(F2800.0
g3
(g7
S'\xfb\xe3\xd9\xfcQ)\x05B'
p921
tp922
Rp923
g819
F112.50424289703369
tp924
a(F160943.0
g3
(g7
S'\x95\xcb)<\xa7\xb2\xefA'
p925
tp926
Rp927
g819
F112.46630477905273
tp928
a(F3600.0
g3
(g7
S'\xb9]\xc8\x1fm\xaf\xedA'
p929
tp930
Rp931
g819
F112.52918887138367
tp932
a(F17816.0
g3
(g7
S'\xa4\xa6\xb8\x9c}\x7f\xe2A'
p933
tp934
Rp935
g819
F112.49354290962219
tp936
a(F6101.0
g3
(g7
S'\xdb\xc1\xbb\xa3\xcaR\xfcA'
p937
tp938
Rp939
g819
F112.58248901367188
tp940
a(F7256.0
g3
(g7
S'\xf8\xad\x92j\xacw\xe6A'
p941
tp942
Rp943
g819
F112.55828094482422
tp944
a(F67277.0
g3
(g7
S'\xedU\x7f\xb8\xe7\xa4\x08B'
p945
tp946
Rp947
g819
F112.41026306152344
tp948
a(F41914.0
g3
(g7
S'\x06\xaf\x0f\x7fZ\xee\xffA'
p949
tp950
Rp951
g819
F112.57445693016052
tp952
a(F6119.0
g3
(g7
S'\xea\x9c|H\xd3\xc7\x05B'
p953
tp954
Rp955
g819
F112.79146099090576
tp956
a(F7081.0
g3
(g7
S'\x07\x00\xf9\xce\xb4h\x0fB'
p957
tp958
Rp959
g819
F112.52180314064026
tp960
a(F9954.0
g3
(g7
S'\x83\x84s;\x84\xd8\x04B'
p961
tp962
Rp963
g819
F112.65602993965149
tp964
a(F6583.0
g3
(g7
S'\xac\xc2\xe8\x1a-z\xe3A'
p965
tp966
Rp967
g819
F112.52714800834656
tp968
a(F26655.0
g3
(g7
S'\x8d\x1e\x9b}-\xb6\xf0A'
p969
tp970
Rp971
g819
F112.35475397109985
tp972
a(F1447.0
g3
(g7
S'*N\xd2\tP\x11\xfaA'
p973
tp974
Rp975
g819
F112.43219304084778
tp976
a(F21034.0
g3
(g7
S'\xcc\xec\xcc)\xf5\x80\tB'
p977
tp978
Rp979
g819
F112.49477982521057
tp980
a(F1474.0
g3
(g7
S'\x9d\xb8\xc4.j\xbe\xf9A'
p981
tp982
Rp983
g819
F112.42222499847412
tp984
a(F7468.0
g3
(g7
S'\xca\x1d\xc2Bi]\x04B'
p985
tp986
Rp987
g819
F112.41596794128418
tp988
a(F7722.0
g3
(g7
S'\xf2\xe3\xc3H\x1a\x84\x00B'
p989
tp990
Rp991
g819
F112.49599385261536
tp992
a(F33895.0
g3
(g7
S'L\x16d\xc1\xbdJ\x0bB'
p993
tp994
Rp995
g819
F112.70735001564026
tp996
a(F7920.0
g3
(g7
S'Zd\xb3T#\x97\x00B'
p997
tp998
Rp999
g819
F112.82515597343445
tp1000
a(F1819.0
g3
(g7
S'\xaehu\xecj\x0c\xf9A'
p1001
tp1002
Rp1003
g819
F112.6744110584259
tp1004
a(F65782.0
g3
(g7
S'*\x02\xe8\xa6w2\xfdA'
p1005
tp1006
Rp1007
g819
F112.55722713470459
tp1008
a(F30225.0
g3
(g7
S'"6\xbc\xae}i\xfeA'
p1009
tp1010
Rp1011
g819
F112.55314707756042
tp1012
a(F42723.0
g3
(g7
S'\xe3\xce\x84P\x11\xcd\xd5A'
p1013
tp1014
Rp1015
g819
F112.53656888008118
tp1016
a(F8385.0
g3
(g7
S'\xe3\x95\x16W\xa6\xaf\xf1A'
p1017
tp1018
Rp1019
g819
F112.67975401878357
tp1020
a(F9735.0
g3
(g7
S'+\x98<\xefd\xa2\xf8A'
p1021
tp1022
Rp1023
g819
F112.74523997306824
tp1024
a(F7844.0
g3
(g7
S'=\xcfB\x9e\x1d\x9e\x02B'
p1025
tp1026
Rp1027
g819
F112.75003290176392
tp1028
a(F103706.0
g3
(g7
S't\xd6\xd8\xb3\xac2\tB'
p1029
tp1030
Rp1031
g819
F112.74328207969666
tp1032
a(F12435.0
g3
(g7
S'f\x1fPM\xec)\xf4A'
p1033
tp1034
Rp1035
g819
F112.78121399879456
tp1036
a(F19959.0
g3
(g7
S'\xb6PWv\xe9N\xfeA'
p1037
tp1038
Rp1039
g819
F112.75094604492188
tp1040
a(F9760.0
g3
(g7
S'\x92\xa9\x01\xe0\x02\x0c\x05B'
p1041
tp1042
Rp1043
g819
F112.7989571094513
tp1044
a(F11637.0
g3
(g7
S'S\x18\x97\xf9,R\x01B'
p1045
tp1046
Rp1047
g819
F112.75217819213867
tp1048
a(F22734.0
g3
(g7
S'9[\xa0\x80"\x08\x0bB'
p1049
tp1050
Rp1051
g819
F112.73897004127502
tp1052
a(F3787.0
g3
(g7
S'EBeh+G\x02B'
p1053
tp1054
Rp1055
g819
F112.75701904296875
tp1056
a(F47200.0
g3
(g7
S't\xfb\xbe\xdc\xfcy\xdfA'
p1057
tp1058
Rp1059
g819
F112.75589489936829
tp1060
a(F7013.0
g3
(g7
S'q\x01\x82\x8e\xbb\xbb\xdbA'
p1061
tp1062
Rp1063
g819
F112.78893995285034
tp1064
a(F8848.0
g3
(g7
S'\x18I&\x9egH\x06B'
p1065
tp1066
Rp1067
g819
F112.68641901016235
tp1068
a(F549700.0
g3
(g7
S'\x12\xb9\xc1<\xa5=\x01B'
p1069
tp1070
Rp1071
g819
F112.5952730178833
tp1072
a(F3680.0
g3
(g7
S'3\xf2\r#\x02\x0e\xfaA'
p1073
tp1074
Rp1075
g819
F112.63287687301636
tp1076
a(F8001.0
g3
(g7
S'\xee\xb7\xd7\xfd\x08\xa0\x07B'
p1077
tp1078
Rp1079
g819
F112.60805296897888
tp1080
a(F18231.0
g3
(g7
S'F\xab\x1b0i\xa2\xf0A'
p1081
tp1082
Rp1083
g819
F112.6571798324585
tp1084
a(F6872.0
g3
(g7
S'?bC\\)\xbb\x03B'
p1085
tp1086
Rp1087
g819
F112.80148792266846
tp1088
a(F3531.0
g3
(g7
S'6\x8edJa_\x91A'
p1089
tp1090
Rp1091
g819
F112.60973906517029
tp1092
a(F1893.0
g3
(g7
S'\xcf\x8f>\xab\xdcq\rB'
p1093
tp1094
Rp1095
g819
F112.64371490478516
tp1096
a(F3906.0
g3
(g7
S'\x8a\xa9\xd3\x8a^\xfb\x08B'
p1097
tp1098
Rp1099
g819
F112.61830592155457
tp1100
a(F18341.0
g3
(g7
S'\t\xc0\x18=\xe9\xc9\xccA'
p1101
tp1102
Rp1103
g819
F112.6392149925232
tp1104
a(F10420.0
g3
(g7
S'\x8d\xc0\xd1\xcc\xbf\xe2\xf1A'
p1105
tp1106
Rp1107
g819
F112.66030693054199
tp1108
a(F3373.0
g3
(g7
S'\x9a\xc0U\xe0\xe2\xf0\tB'
p1109
tp1110
Rp1111
g819
F112.60962581634521
tp1112
a(F10950.0
g3
(g7
S'0E\xe3\x00\xde5\xf2A'
p1113
tp1114
Rp1115
g819
F112.60977292060852
tp1116
a(F2128.0
g3
(g7
S'y\x1b\x91\xb7\x84]\xe5A'
p1117
tp1118
Rp1119
g819
F112.61729717254639
tp1120
a(F44939.0
g3
(g7
S'\x84\xd8\xeb\x93R\x12\xe6A'
p1121
tp1122
Rp1123
g819
F112.61565804481506
tp1124
a(F1800.0
g3
(g7
S'\x8f\xde\xe2\xea)\xac\x08B'
p1125
tp1126
Rp1127
g819
F112.66380715370178
tp1128
a(F9161.0
g3
(g7
S'\x9a\xae.\x15\xca\xb7\x0bB'
p1129
tp1130
Rp1131
g819
F112.5773720741272
tp1132
a(F5349.0
g3
(g7
S'\xc75d\xda\xf8\xf9\x04B'
p1133
tp1134
Rp1135
g819
F112.5760350227356
tp1136
a(F4717.0
g3
(g7
S'\x7f\xecf@\x98\xac\xfaA'
p1137
tp1138
Rp1139
g819
F112.59827399253845
tp1140
a(F1315.0
g3
(g7
S'\x96d\x07m\xddd\xf2A'
p1141
tp1142
Rp1143
g819
F112.65931797027588
tp1144
a(F1579.0
g3
(g7
S'\x94\x85\x93\x04\x0e\x1d\x02B'
p1145
tp1146
Rp1147
g819
F112.70260691642761
tp1148
a(F2086.0
g3
(g7
S'\x90^n;\xc1\xd9\xd9A'
p1149
tp1150
Rp1151
g819
F112.67926692962646
tp1152
a(F28476.0
g3
(g7
S'\xc8\x0bh\x03G\xc5\x02B'
p1153
tp1154
Rp1155
g819
F112.61598610877991
tp1156
a(F5094.0
g3
(g7
S'\x1c\x9a\x7f}\x0e>\xf7A'
p1157
tp1158
Rp1159
g819
F112.60982179641724
tp1160
a(F130168.0
g3
(g7
S'\\\xd8\x1a\xd9H\xf0\x07B'
p1161
tp1162
Rp1163
g819
F112.55914402008057
tp1164
a(F21655.0
g3
(g7
S'\xcd2\x80\x03}\xe9\x00B'
p1165
tp1166
Rp1167
g819
F112.55513286590576
tp1168
a(F5162.0
g3
(g7
S'/.\xc1\x02\nE\xc1A'
p1169
tp1170
Rp1171
g819
F112.71951508522034
tp1172
a(F444096.0
g3
(g7
S'\xafK@\xe4\xd2P\xdcA'
p1173
tp1174
Rp1175
g819
F112.68385791778564
tp1176
a(F2100.0
g3
(g7
S':\x07I\xf0\xe9>\xfbA'
p1177
tp1178
Rp1179
g819
F113.00074005126953
tp1180
a(F6481.0
g3
(g7
S'\xc3~\x97\x13\xefF\xfeA'
p1181
tp1182
Rp1183
g819
F112.90379285812378
tp1184
a(F1086.0
g3
(g7
S'\x03}\xdf\xfb\x08R\tB'
p1185
tp1186
Rp1187
g819
F112.61489486694336
tp1188
a(F9515.0
g3
(g7
S'\x14?\x9eo2\xc2\x03B'
p1189
tp1190
Rp1191
g819
F112.64862203598022
tp1192
a(F10335.0
g3
(g7
S'\x84\x1d\xed\xe0\xab$\x05B'
p1193
tp1194
Rp1195
g819
F112.61042094230652
tp1196
a(F8721.0
g3
(g7
S'u\x97\x1a\xed\xa4\xab\xf1A'
p1197
tp1198
Rp1199
g819
F112.8570191860199
tp1200
a(F4387.0
g3
(g7
S'\xcb#\x06\xbd\x0b=\nB'
p1201
tp1202
Rp1203
g819
F112.81489896774292
tp1204
a(F49792.0
g3
(g7
S'\xa0G\x12\x0e\xb1E\x04B'
p1205
tp1206
Rp1207
g819
F112.66385102272034
tp1208
a(F652.0
g3
(g7
S'!\x9f\x9an\x9az\xd6A'
p1209
tp1210
Rp1211
g819
F112.58498191833496
tp1212
a(F5313.0
g3
(g7
S'y\x8d\xc4\x83>F\x01B'
p1213
tp1214
Rp1215
g819
F112.6547691822052
tp1216
aaF110.0
aI34
aF1.2799861431121826
aa(lp1217
(lp1218
(F5194.0
g3
(g7
S'Tp\x7f\x98\x949\x99T'
p1219
tp1220
Rp1221
(lp1222
I0
aF1.7e+100
aF70.50846695899963
tp1223
a(F6209.0
g3
(g7
S'U\x14\x19)(!\xa6T'
p1224
tp1225
Rp1226
g1222
F70.55893206596375
tp1227
a(F2115.0
g3
(g7
S'$\xf7\x03%\xa0}\xb1T'
p1228
tp1229
Rp1230
g1222
F70.64918994903564
tp1231
a(F5798.0
g3
(g7
S'\x19\x10#\xd2>\xfd\xb7T'
p1232
tp1233
Rp1234
g1222
F70.77392506599426
tp1235
a(F36057.0
g3
(g7
S'\xdd\xfa\xc7\n\x05nYT'
p1236
tp1237
Rp1238
g1222
F70.75716400146484
tp1239
a(F5559.0
g3
(g7
S'E\xd2Z\x0b.\x95\x80T'
p1240
tp1241
Rp1242
g1222
F70.80369305610657
tp1243
a(F14474.0
g3
(g7
S'\x0f\xd3\xe8\xe9VF\xb5T'
p1244
tp1245
Rp1246
g1222
F70.79288601875305
tp1247
a(F15099.0
g3
(g7
S'\xc2+Dp\x95\xcd\xb8T'
p1248
tp1249
Rp1250
g1222
F70.65286993980408
tp1251
a(F14858.0
g3
(g7
S'_\x07\x1e]eA\xa1T'
p1252
tp1253
Rp1254
g1222
F70.66393995285034
tp1255
a(F5460.0
g3
(g7
S'\xee\xd5\xd2U9\xc0\xbbT'
p1256
tp1257
Rp1258
g1222
F70.65228509902954
tp1259
a(F11957.0
g3
(g7
S'\xb2\x80\xb6\xc7K\xe1\xbaT'
p1260
tp1261
Rp1262
g1222
F70.65408396720886
tp1263
a(F9108.0
g3
(g7
S'\xb9\x1a\x7f\xf5\xd8F\xa5T'
p1264
tp1265
Rp1266
g1222
F70.73607802391052
tp1267
a(F9216.0
g3
(g7
S'DJ\x1c.\x06\xee\xa8T'
p1268
tp1269
Rp1270
g1222
F70.69268202781677
tp1271
a(F44469.0
g3
(g7
S'6\x1c\xba\x8a>e\xbcT'
p1272
tp1273
Rp1274
g1222
F70.69061088562012
tp1275
a(F13775.0
g3
(g7
S'z\xa0\x19+\x15\x90oT'
p1276
tp1277
Rp1278
g1222
F70.85615396499634
tp1279
a(F1496.0
g3
(g7
S':\xa9\xcf\xf4&]\xa0T'
p1280
tp1281
Rp1282
g1222
F70.71560311317444
tp1283
a(F4613.0
g3
(g7
S'\xfd\xcc\xd0Ot\x85\xbcT'
p1284
tp1285
Rp1286
g1222
F70.61314392089844
tp1287
a(F9555.0
g3
(g7
S'\xdf\x16\xb7\x9a\xc6l\x92T'
p1288
tp1289
Rp1290
g1222
F70.59524083137512
tp1291
a(F4844.0
g3
(g7
S'\xb4\xc2?yc\xb9\xbdT'
p1292
tp1293
Rp1294
g1222
F70.61699104309082
tp1295
a(F7132.0
g3
(g7
S'?mn\x83+\x1e\xa4T'
p1296
tp1297
Rp1298
g1222
F70.61532998085022
tp1299
a(F47440.0
g3
(g7
S'\xbb\xccf\xe2\xfa\xf5\xb9T'
p1300
tp1301
Rp1302
g1222
F70.6124358177185
tp1303
a(F10294.0
g3
(g7
S'\xa5\x12\x19\xfbN\x04\xbeT'
p1304
tp1305
Rp1306
g1222
F70.68145895004272
tp1307
a(F9526.0
g3
(g7
S'\x82\xbb\xdd\xa4-\x13\xa8T'
p1308
tp1309
Rp1310
g1222
F70.66122388839722
tp1311
a(F5622.0
g3
(g7
S'\x072\xf8\xfe\xa5u\xa0T'
p1312
tp1313
Rp1314
g1222
F70.68124485015869
tp1315
a(F13849.0
g3
(g7
S'\x81I\xd5\x1b\xff\xd8\xadT'
p1316
tp1317
Rp1318
g1222
F70.64079093933105
tp1319
a(F21001.0
g3
(g7
S'%\xf7v\xdb\x05\xe7\x9dT'
p1320
tp1321
Rp1322
g1222
F70.62551593780518
tp1323
a(F3324.0
g3
(g7
S'\xd5~\xcf\x11\xb3\x87\xacT'
p1324
tp1325
Rp1326
g1222
F70.62250804901123
tp1327
a(F4465.0
g3
(g7
S'\x9aO\xf0\xfb\xfe}\xaaT'
p1328
tp1329
Rp1330
g1222
F70.80632901191711
tp1331
a(F19865.0
g3
(g7
S'3u\x8bT\xf3q\xbbT'
p1332
tp1333
Rp1334
g1222
F70.76279997825623
tp1335
a(F102350.0
g3
(g7
S'#\xc3\x9a\xb6\xe7\xc3\xa1T'
p1336
tp1337
Rp1338
g1222
F70.75043606758118
tp1339
a(F4878.0
g3
(g7
S'\x7f$\x84\r\xca\x1e\xa3T'
p1340
tp1341
Rp1342
g1222
F70.82744598388672
tp1343
a(F3706.0
g3
(g7
S'\x00\x8d\xc9\xb1\xa8\xcb\xaeT'
p1344
tp1345
Rp1346
g1222
F70.83328604698181
tp1347
a(F6998.0
g3
(g7
S'TG\x1f\xde\x03\xe3\x95T'
p1348
tp1349
Rp1350
g1222
F70.7860209941864
tp1351
a(F34017.0
g3
(g7
S',\xdd\x03>\xbe7\x92T'
p1352
tp1353
Rp1354
g1222
F70.7984631061554
tp1355
a(F9813.0
g3
(g7
S'\xd9\xdb\xc8\xb0^\xe0\xb1T'
p1356
tp1357
Rp1358
g1222
F70.78179693222046
tp1359
a(F80886.0
g3
(g7
S'\x80(s\x82W9\xbaT'
p1360
tp1361
Rp1362
g1222
F70.74280405044556
tp1363
a(F1493.0
g3
(g7
S'\xca%v\xd4\xf41\xb4T'
p1364
tp1365
Rp1366
g1222
F70.79894399642944
tp1367
a(F4160.0
g3
(g7
S'\xac\x8e\xa6\x7f\xdd\n\xb1T'
p1368
tp1369
Rp1370
g1222
F70.8511061668396
tp1371
a(F6589.0
g3
(g7
S'\x1c\xd7\xdd\x81^\xbepT'
p1372
tp1373
Rp1374
g1222
F70.82219099998474
tp1375
a(F4801.0
g3
(g7
S'W\t\xe4\x0b\xcf\xb4\xbaT'
p1376
tp1377
Rp1378
g1222
F70.82629489898682
tp1379
a(F2200.0
g3
(g7
S'\xb5\xa6\x84Mv:\x87T'
p1380
tp1381
Rp1382
g1222
F70.88321089744568
tp1383
a(F2547.0
g3
(g7
S'.\x99N\xaa\x98\xfd\xb3T'
p1384
tp1385
Rp1386
g1222
F70.90958380699158
tp1387
a(F6686.0
g3
(g7
S'\\\xd8\x11\x02\xdd\x7f\xb6T'
p1388
tp1389
Rp1390
g1222
F70.76555395126343
tp1391
a(F2748.0
g3
(g7
S'*#\x0c\x87\xb9n\xb3T'
p1392
tp1393
Rp1394
g1222
F70.698410987854
tp1395
a(F130921.0
g3
(g7
S'\x115O\xed8\xef\xadT'
p1396
tp1397
Rp1398
g1222
F70.85015392303467
tp1399
a(F1855.0
g3
(g7
S'V\xdbaJV\x80\x9fT'
p1400
tp1401
Rp1402
g1222
F71.12487888336182
tp1403
a(F46782.0
g3
(g7
S'\xa2\x1a\x10\r1u\xb0T'
p1404
tp1405
Rp1406
g1222
F71.11051893234253
tp1407
a(F6255.0
g3
(g7
S'\xd6\xbc5\xd4}\x9c\xb9T'
p1408
tp1409
Rp1410
g1222
F71.08741593360901
tp1411
a(F6100.0
g3
(g7
S'\xb1\xe6\x0f#\xb6\x11\xb0T'
p1412
tp1413
Rp1414
g1222
F70.8792359828949
tp1415
a(F23622.0
g3
(g7
S'\xda\xb5b\xa3\xf7\xef\xaaT'
p1416
tp1417
Rp1418
g1222
F70.90729999542236
tp1419
a(F10559.0
g3
(g7
S'c#\x8f\xe8\x07\xab\xb5T'
p1420
tp1421
Rp1422
g1222
F70.85269689559937
tp1423
a(F5629.0
g3
(g7
S'I\x90)\xb1\x9f\x96\x95T'
p1424
tp1425
Rp1426
g1222
F70.91945195198059
tp1427
a(F252947.0
g3
(g7
S'\xb9\xb7\xcb\xd6\xc0q\x8bT'
p1428
tp1429
Rp1430
g1222
F70.91684198379517
tp1431
a(F10662.0
g3
(g7
S'\xce[\xf1\x8d\xb5J\xb3T'
p1432
tp1433
Rp1434
g1222
F70.85030508041382
tp1435
a(F19906.0
g3
(g7
S')2C`9\x8a\xacT'
p1436
tp1437
Rp1438
g1222
F70.90667200088501
tp1439
a(F2012.0
g3
(g7
S':he\x84\xb8"gT'
p1440
tp1441
Rp1442
g1222
F70.92669701576233
tp1443
a(F50525.0
g3
(g7
S'\xfa\x10\xf2!\x05?\xa6T'
p1444
tp1445
Rp1446
g1222
F70.90418982505798
tp1447
a(F9831.0
g3
(g7
S'\xad\xed\xbc\xf7\x97\x94\xa1T'
p1448
tp1449
Rp1450
g1222
F70.88285684585571
tp1451
a(F8842.0
g3
(g7
S'\x1d\xd7\x1e\xd7\x83:\xa3T'
p1452
tp1453
Rp1454
g1222
F70.91886711120605
tp1455
a(F243850.0
g3
(g7
S'\xc0\r\xa0\\\x91e\x99T'
p1456
tp1457
Rp1458
g1222
F70.89310097694397
tp1459
a(F11350.0
g3
(g7
S'\xfc#\xe4\x14\xcd\xdc\xa5T'
p1460
tp1461
Rp1462
g1222
F70.91152906417847
tp1463
a(F11496.0
g3
(g7
S'\xc2\xca\xea\xca\xe2\xb2\xa8T'
p1464
tp1465
Rp1466
g1222
F72.8325400352478
tp1467
a(F2087.0
g3
(g7
S'\xda\nHk\x86\xa6\x9aT'
p1468
tp1469
Rp1470
g1222
F70.81180095672607
tp1471
a(F3580.0
g3
(g7
S'w\xa2\x19m\xee\xef\xaaT'
p1472
tp1473
Rp1474
g1222
F70.84974598884583
tp1475
a(F11822.0
g3
(g7
S'\xc2\xa1\x81m2\r\xb7T'
p1476
tp1477
Rp1478
g1222
F70.726646900177
tp1479
a(F93901.0
g3
(g7
S'\x0f# h\x8a\xe0\xafT'
p1480
tp1481
Rp1482
g1222
F70.76269197463989
tp1483
a(F6897.0
g3
(g7
S'\xa2\x07\x1e\xb58A\xb5T'
p1484
tp1485
Rp1486
g1222
F70.75444388389587
tp1487
a(F19398.0
g3
(g7
S'}\xb9\x85V\xed0\xb6T'
p1488
tp1489
Rp1490
g1222
F70.77421808242798
tp1491
a(F131849.0
g3
(g7
S'TfHL\xc7V\x9bT'
p1492
tp1493
Rp1494
g1222
F70.77989196777344
tp1495
a(F43015.0
g3
(g7
S'.\xde\x1a\xb9:\xe5\xb8T'
p1496
tp1497
Rp1498
g1222
F70.79711484909058
tp1499
a(F15419.0
g3
(g7
S'o\xa7\xd2\x02\xf2\xa9\xbeT'
p1500
tp1501
Rp1502
g1222
F70.80070805549622
tp1503
a(F4756.0
g3
(g7
S'>\\L\x01\x1c\xce\xa0T'
p1504
tp1505
Rp1506
g1222
F70.7012689113617
tp1507
a(F175353.0
g3
(g7
S"1`\xee'\xfa\x95\xb7T"
p1508
tp1509
Rp1510
g1222
F70.71545600891113
tp1511
a(F57125.0
g3
(g7
S't\x13\x0e\xb2\xdf\xc9\x9bT'
p1512
tp1513
Rp1514
g1222
F70.77686905860901
tp1515
a(F26574.0
g3
(g7
S'\xfc\x8cv\r\xaa\x16\xbcT'
p1516
tp1517
Rp1518
g1222
F70.72971296310425
tp1519
a(F84117.0
g3
(g7
S'\xbdZe\xdc\x8a\x0e\xb9T'
p1520
tp1521
Rp1522
g1222
F70.69509220123291
tp1523
a(F29568.0
g3
(g7
S'\x14`\xab\x89~+sT'
p1524
tp1525
Rp1526
g1222
F70.77988791465759
tp1527
a(F142585.0
g3
(g7
S'\x89\x99@\x04\xb0\x1a\xb6T'
p1528
tp1529
Rp1530
g1222
F70.78876495361328
tp1531
a(F14745.0
g3
(g7
S'W\xcf\xea\xb9\xad\xe1\x92T'
p1532
tp1533
Rp1534
g1222
F70.7656180858612
tp1535
a(F8490.0
g3
(g7
S'\xca"W\xd8r\x92\xbcT'
p1536
tp1537
Rp1538
g1222
F70.89619493484497
tp1539
a(F29195.0
g3
(g7
S'\xd5\x9eG\x93\x92\xfe\xb3T'
p1540
tp1541
Rp1542
g1222
F70.7488660812378
tp1543
a(F4976.0
g3
(g7
S'B\x96\xaeM^\\\x96T'
p1544
tp1545
Rp1546
g1222
F70.76727604866028
tp1547
a(F11472.0
g3
(g7
S'\xd9E\x17\x19\xc0\x1a\xb5T'
p1548
tp1549
Rp1550
g1222
F70.780189037323
tp1551
a(F4830.0
g3
(g7
S'\xf5#\xefM\x89T\xa2T'
p1552
tp1553
Rp1554
g1222
F70.75187420845032
tp1555
a(F10074.0
g3
(g7
S'\x02<\xf1F\xe0\xcb\xb0T'
p1556
tp1557
Rp1558
g1222
F70.7693190574646
tp1559
a(F6336.0
g3
(g7
S'\xe5^Mx\x82\x98\xb6T'
p1560
tp1561
Rp1562
g1222
F70.84354305267334
tp1563
a(F20682.0
g3
(g7
S"\xf9jx?V'\x86T"
p1564
tp1565
Rp1566
g1222
F70.79103517532349
tp1567
a(F95542.0
g3
(g7
S'-\xfa\x1c\xb5\xd5\xe3\xaaT'
p1568
tp1569
Rp1570
g1222
F70.66031002998352
tp1571
a(F12490.0
g3
(g7
S'R\x9bu&cY\xbcT'
p1572
tp1573
Rp1574
g1222
F70.72781205177307
tp1575
a(F4462.0
g3
(g7
S'3\x02\xdb\xe4M\x8a\xabT'
p1576
tp1577
Rp1578
g1222
F70.71614503860474
tp1579
a(F2721.0
g3
(g7
S'\x9c\xfcP\x883\x90\xa4T'
p1580
tp1581
Rp1582
g1222
F70.58061194419861
tp1583
a(F77499.0
g3
(g7
S'\x89\xc9^\xd2s7\xb4T'
p1584
tp1585
Rp1586
g1222
F70.68897604942322
tp1587
a(F17529.0
g3
(g7
S'\xe3\x94a\xcd\xbe\xc4\xa7T'
p1588
tp1589
Rp1590
g1222
F70.67115092277527
tp1591
a(F4094.0
g3
(g7
S'`1\x89\xd6bN\xa8T'
p1592
tp1593
Rp1594
g1222
F70.69518494606018
tp1595
a(F1990.0
g3
(g7
S'\xb9Q&\x0f\xd9\x96\xaaT'
p1596
tp1597
Rp1598
g1222
F70.72535300254822
tp1599
a(F3626.0
g3
(g7
S'\xd5I\x82\x1c\x81\xc3\xb1T'
p1600
tp1601
Rp1602
g1222
F70.72629809379578
tp1603
a(F2536.0
g3
(g7
S'$J\xefU\x00\xb0\xb9T'
p1604
tp1605
Rp1606
g1222
F70.71756911277771
tp1607
a(F3451.0
g3
(g7
S'\xbf\x92\\n\x184\xafT'
p1608
tp1609
Rp1610
g1222
F70.79929995536804
tp1611
a(F3454.0
g3
(g7
S'\x0biH\x9e\x7f\x05\xacT'
p1612
tp1613
Rp1614
g1222
F70.7224907875061
tp1615
a(F9239.0
g3
(g7
S'{*\x81\xa2\xfb\xaa\xb9T'
p1616
tp1617
Rp1618
g1222
F70.65668177604675
tp1619
aaI70
aI334
aF0.49265313148498535
aa(lp1620
(lp1621
(F28301.0
g3
(g7
S'\xd8Tz\x9d\xa2_\xaeT'
p1622
tp1623
Rp1624
(lp1625
I0
aF1.7e+100
aF65.28095602989197
tp1626
a(F11348.0
g3
(g7
S'\xb1o\xc4U\xd7\x89\x81T'
p1627
tp1628
Rp1629
g1625
F65.24117302894592
tp1630
a(F7045.0
g3
(g7
S'\x16\xfdr\x00\x12\x8b\xb2T'
p1631
tp1632
Rp1633
g1625
F65.32516098022461
tp1634
a(F86979.0
g3
(g7
S'\x19\x1c\xae\n\x8e\x95\x95T'
p1635
tp1636
Rp1637
g1625
F65.27221298217773
tp1638
a(F118324.0
g3
(g7
S'\x84s\x14\xdd\x800\xa1T'
p1639
tp1640
Rp1641
g1625
F65.39885807037354
tp1642
a(F3061.0
g3
(g7
S'o\x0e\xcd\xd9|\xa7\xa3T'
p1643
tp1644
Rp1645
g1625
F65.44924402236938
tp1646
a(F133464.0
g3
(g7
S'(\xaf\x84\xd6\xa1\x0e\xb3T'
p1647
tp1648
Rp1649
g1625
F65.49841117858887
tp1650
a(F39405.0
g3
(g7
S'\xf4P\xc4\xb5\xce\xf2\xa8T'
p1651
tp1652
Rp1653
g1625
F65.41308784484863
tp1654
a(F9037.0
g3
(g7
S'\x186\x1ax\xd1\x9c\xb7T'
p1655
tp1656
Rp1657
g1625
F65.70073318481445
tp1658
a(F6554.0
g3
(g7
S'\xe4\x17\xf8/b\xa0\xb8T'
p1659
tp1660
Rp1661
g1625
F65.75952315330505
tp1662
a(F9912.0
g3
(g7
S'\xab]\xa5\xe4K-\x9dT'
p1663
tp1664
Rp1665
g1625
F65.3669490814209
tp1666
a(F17830.0
g3
(g7
S'B\xbc\x14\t\x03\x1e\xaaT'
p1667
tp1668
Rp1669
g1625
F65.41397190093994
tp1670
a(F15668.0
g3
(g7
S'H0\xf1\x86U\xcc\xa9T'
p1671
tp1672
Rp1673
g1625
F65.47364211082458
tp1674
a(F4346.0
g3
(g7
S'/b\xa1q`\x04\xb6T'
p1675
tp1676
Rp1677
g1625
F65.44721007347107
tp1678
a(F18219.0
g3
(g7
S'2\xc0\x99R\xd5\x89\xbeT'
p1679
tp1680
Rp1681
g1625
F65.04039788246155
tp1682
a(F10459.0
g3
(g7
S'\xed\xcc\x7f\xe6\xb4\x00\xb2T'
p1683
tp1684
Rp1685
g1625
F65.6492760181427
tp1686
a(F15266.0
g3
(g7
S'I\xbd\xfb\x8cB\xc2\x8dT'
p1687
tp1688
Rp1689
g1625
F67.97920203208923
tp1690
a(F8698.0
g3
(g7
S'\x12\xa0\xea\x02\x17B\xbaT'
p1691
tp1692
Rp1693
g1625
F67.29888796806335
tp1694
a(F5381.0
g3
(g7
S'lt\x97\xa0\x8fm\xafT'
p1695
tp1696
Rp1697
g1625
F65.97574090957642
tp1698
a(F85890.0
g3
(g7
S'\x87\xf8\xbd\xb6\x81\x17\xbbT'
p1699
tp1700
Rp1701
g1625
F65.32416701316833
tp1702
a(F2726.0
g3
(g7
S')E\xefe\xfc1\xbbT'
p1703
tp1704
Rp1705
g1625
F67.04559707641602
tp1706
a(F2635.0
g3
(g7
S"\xf56\x08\x08'\x8d\xb2T"
p1707
tp1708
Rp1709
g1625
F66.53177905082703
tp1710
a(F8637.0
g3
(g7
S"\x9e\xf8\xf8'\x18#zT"
p1711
tp1712
Rp1713
g1625
F65.0901529788971
tp1714
a(F35498.0
g3
(g7
S'\xf1\x1e \xca\xf1\xe6\xa4T'
p1715
tp1716
Rp1717
g1625
F65.08926606178284
tp1718
a(F9732.0
g3
(g7
S'\xd4\x9a\x98\xe2\xd0\xbcxT'
p1719
tp1720
Rp1721
g1625
F65.09822416305542
tp1722
a(F21647.0
g3
(g7
S'\xb3\x19\xea=\xba\xf4\xb9T'
p1723
tp1724
Rp1725
g1625
F65.14360690116882
tp1726
a(F20338.0
g3
(g7
S'\xf8\xd0\xfd\xf9\x7f\x07\xb1T'
p1727
tp1728
Rp1729
g1625
F65.26329898834229
tp1730
a(F22704.0
g3
(g7
S'\xd9\xab\x17\xcdu\x8c\xb9T'
p1731
tp1732
Rp1733
g1625
F65.06061315536499
tp1734
a(F86371.0
g3
(g7
S'\xa4v2E_/\xbdT'
p1735
tp1736
Rp1737
g1625
F65.04725193977356
tp1738
a(F61725.0
g3
(g7
S'\xe3\x96\xf9\x9bCh\xb3T'
p1739
tp1740
Rp1741
g1625
F65.062903881073
tp1742
a(F11773.0
g3
(g7
S'\t\xc5\xae\xa1N\xac\xb3T'
p1743
tp1744
Rp1745
g1625
F65.03902792930603
tp1746
a(F3719.0
g3
(g7
S'\xfcpv\x0e\xfb\xf5\x80T'
p1747
tp1748
Rp1749
g1625
F65.03508400917053
tp1750
a(F15987.0
g3
(g7
S'\x8d\xe3\x00\x161\xf9\x95T'
p1751
tp1752
Rp1753
g1625
F65.75248312950134
tp1754
a(F166378.0
g3
(g7
S'\xe3\xc6\x00\x99,[\xa6T'
p1755
tp1756
Rp1757
g1625
F65.33685898780823
tp1758
a(F4261.0
g3
(g7
S'BO\xc7\xec\xbc\xc7\xbbT'
p1759
tp1760
Rp1761
g1625
F65.23144197463989
tp1762
a(F3267.0
g3
(g7
S't5\xe1u\x15\x83\xbcT'
p1763
tp1764
Rp1765
g1625
F65.19526815414429
tp1766
a(F16567.0
g3
(g7
S'\x92\xcb\x92\xa1\xba\x17HT'
p1767
tp1768
Rp1769
g1625
F65.15482497215271
tp1770
a(F4548.0
g3
(g7
S'\x95)\x8a\x12\x05\xa7\xb4T'
p1771
tp1772
Rp1773
g1625
F65.21719408035278
tp1774
a(F4686.0
g3
(g7
S')\xe3\x82\x83A\xf4gT'
p1775
tp1776
Rp1777
g1625
F65.23722791671753
tp1778
a(F13872.0
g3
(g7
S'\x82D\xb0\x8b\x90\x1d\xb7T'
p1779
tp1780
Rp1781
g1625
F65.20707607269287
tp1782
a(F5156.0
g3
(g7
S'x\xe0\xc2\xde\xa8\x84\x80T'
p1783
tp1784
Rp1785
g1625
F65.27733588218689
tp1786
a(F14149.0
g3
(g7
S'\xc9\xe4\x95\xf7\xd7R\xa6T'
p1787
tp1788
Rp1789
g1625
F65.22534108161926
tp1790
a(F5271.0
g3
(g7
S'8}\\$\xb2\xf1\xa0T'
p1791
tp1792
Rp1793
g1625
F65.25340104103088
tp1794
a(F13898.0
g3
(g7
S'\xf1Mp2\xa8\x07\xb6T'
p1795
tp1796
Rp1797
g1625
F65.29479694366455
tp1798
a(F5019.0
g3
(g7
S'\xe3\xc3\x897U\x1a\x98T'
p1799
tp1800
Rp1801
g1625
F65.29157209396362
tp1802
a(F47798.0
g3
(g7
S'\x83\xd2\xab\x040\xaf\xb4T'
p1803
tp1804
Rp1805
g1625
F65.24696588516235
tp1806
a(F3389.0
g3
(g7
S'\x115mp\xe0\xab\xbdT'
p1807
tp1808
Rp1809
g1625
F65.25300407409668
tp1810
a(F55033.0
g3
(g7
S'\xb1;5e\xccP\xb2T'
p1811
tp1812
Rp1813
g1625
F66.24081897735596
tp1814
a(F7407.0
g3
(g7
S'\x1b\xdd\x923\xf3\xe0\xb0T'
p1815
tp1816
Rp1817
g1625
F66.51005291938782
tp1818
a(F11455.0
g3
(g7
S'\xb9\xae\xf8#\xe8\x92\xa5T'
p1819
tp1820
Rp1821
g1625
F66.27259087562561
tp1822
a(F11309.0
g3
(g7
S'\x8d\xf0\xae\x8e\xc0)hT'
p1823
tp1824
Rp1825
g1625
F66.29357504844666
tp1826
a(F6436.0
g3
(g7
S'\xb4l\xbeH\xd6\x10\x16T'
p1827
tp1828
Rp1829
g1625
F67.06453490257263
tp1830
a(F6339.0
g3
(g7
S'\xce\xb90\xbf\x8c\xe2\xb4T'
p1831
tp1832
Rp1833
g1625
F65.94422507286072
tp1834
a(F1879.0
g3
(g7
S'\x0796\xe9\x86\xaa\x9fT'
p1835
tp1836
Rp1837
g1625
F66.32175612449646
tp1838
a(F8887.0
g3
(g7
S'B8\x9f\xddo$\xbeT'
p1839
tp1840
Rp1841
g1625
F65.37824511528015
tp1842
a(F25956.0
g3
(g7
S':\x86\xc5\xfel0\xadT'
p1843
tp1844
Rp1845
g1625
F65.16103887557983
tp1846
a(F13333.0
g3
(g7
S'6\x96?,f\xae\xbaT'
p1847
tp1848
Rp1849
g1625
F65.23372197151184
tp1850
a(F6893.0
g3
(g7
S'\x0e\xa9f\xc3\x15d\xa7T'
p1851
tp1852
Rp1853
g1625
F65.22118902206421
tp1854
a(F45504.0
g3
(g7
S'\x10\xfc\x12xQ$\xacT'
p1855
tp1856
Rp1857
g1625
F65.16330099105835
tp1858
a(F23317.0
g3
(g7
S'\xe6Z\x00\x8f\x1c\xdf\xaeT'
p1859
tp1860
Rp1861
g1625
F65.31786584854126
tp1862
a(F5459.0
g3
(g7
S'\x11\xb9k-\xb8$\x8bT'
p1863
tp1864
Rp1865
g1625
F65.21168684959412
tp1866
a(F3817.0
g3
(g7
S'o\x89\x96\x02AH\xb1T'
p1867
tp1868
Rp1869
g1625
F65.23976588249207
tp1870
a(F39202.0
g3
(g7
S'N\xa0-\xce\xa6g\xb2T'
p1871
tp1872
Rp1873
g1625
F65.4091649055481
tp1874
a(F7064.0
g3
(g7
S'\x8a\x14\x07(N\x06\xbaT'
p1875
tp1876
Rp1877
g1625
F66.65477085113525
tp1878
a(F5209.0
g3
(g7
S']\xf3\x8d\xc1\xadu\xbdT'
p1879
tp1880
Rp1881
g1625
F66.30894589424133
tp1882
a(F10027.0
g3
(g7
S'H)\x9d\xac \xcc\x90T'
p1883
tp1884
Rp1885
g1625
F67.09420585632324
tp1886
a(F19226.0
g3
(g7
S'WZh\x1c\xcc\xdc\x96T'
p1887
tp1888
Rp1889
g1625
F66.54665398597717
tp1890
a(F7903.0
g3
(g7
S'-\xce\xbe\x95\xc2\x97zT'
p1891
tp1892
Rp1893
g1625
F66.18065309524536
tp1894
a(F11141.0
g3
(g7
S'\xc1\x18"\xf5.\x81\xadT'
p1895
tp1896
Rp1897
g1625
F66.77806806564331
tp1898
a(F3446.0
g3
(g7
S'\xe7\xc1*i\xd9}\xbbT'
p1899
tp1900
Rp1901
g1625
F66.44391584396362
tp1902
a(F11401.0
g3
(g7
S'`\xc4\xef|\x13j\xb8T'
p1903
tp1904
Rp1905
g1625
F66.2251660823822
tp1906
a(F5108.0
g3
(g7
S'\xb2\xa4\x81a\xdc\xb5\xbaT'
p1907
tp1908
Rp1909
g1625
F65.8561339378357
tp1910
a(F26546.0
g3
(g7
S'\xb8\x0f?\xa0\xd1\xf0\xbcT'
p1911
tp1912
Rp1913
g1625
F66.37557005882263
tp1914
a(F14056.0
g3
(g7
S'f\xcc\x9f\xbbo\x0f\xb0T'
p1915
tp1916
Rp1917
g1625
F66.18391489982605
tp1918
a(F3815.0
g3
(g7
S'\x92-\xcf\xfd/\xcf\x97T'
p1919
tp1920
Rp1921
g1625
F65.26484298706055
tp1922
a(F15119.0
g3
(g7
S'@\x93\x92\x7f~$\xbbT'
p1923
tp1924
Rp1925
g1625
F65.27199602127075
tp1926
a(F12881.0
g3
(g7
S' *\xbf\xe2\xd9\xdd\x9dT'
p1927
tp1928
Rp1929
g1625
F65.29088807106018
tp1930
a(F6678.0
g3
(g7
S'\xa7\xc9\xc8\xa7\xee\xaf\x85T'
p1931
tp1932
Rp1933
g1625
F66.56268119812012
tp1934
a(F5586.0
g3
(g7
S'\xb3Y,<0_\xbeT'
p1935
tp1936
Rp1937
g1625
F66.87363290786743
tp1938
a(F4154.0
g3
(g7
S']\x05Y\x18\xacE\xbcT'
p1939
tp1940
Rp1941
g1625
F66.2853729724884
tp1942
a(F2917.0
g3
(g7
S'\x02\x03\x82$\xd1E\xacT'
p1943
tp1944
Rp1945
g1625
F66.26319789886475
tp1946
a(F2792.0
g3
(g7
S'[X\x1fYR\xa0\xbeT'
p1947
tp1948
Rp1949
g1625
F66.36332583427429
tp1950
a(F7049.0
g3
(g7
S'XC)\x87!`\xa4T'
p1951
tp1952
Rp1953
g1625
F66.81864213943481
tp1954
a(F50879.0
g3
(g7
S'\x97b:\x9fi\x7f\xb2T'
p1955
tp1956
Rp1957
g1625
F66.48729491233826
tp1958
a(F3534.0
g3
(g7
S'\x85\xfa3\xb3\x10A\x8aT'
p1959
tp1960
Rp1961
g1625
F67.67157316207886
tp1962
a(F7182.0
g3
(g7
S'%vo\xea\xa1\xab\x93T'
p1963
tp1964
Rp1965
g1625
F67.98423910140991
tp1966
a(F4642.0
g3
(g7
S'\xbc\xedhYe\xb5\xbeT'
p1967
tp1968
Rp1969
g1625
F67.24181699752808
tp1970
a(F5643.0
g3
(g7
S'\x94^\x7f\x01}\x0c\xa1T'
p1971
tp1972
Rp1973
g1625
F65.31747698783875
tp1974
a(F3769.0
g3
(g7
S')C\x1d\xa4\t\x07\xb8T'
p1975
tp1976
Rp1977
g1625
F66.10878801345825
tp1978
a(F2128.0
g3
(g7
S'{\xa5\x1f\xdd\xf4\x14\xbdT'
p1979
tp1980
Rp1981
g1625
F66.63682699203491
tp1982
a(F10083.0
g3
(g7
S"\xb5^'\xaf\x1c\x9b\x92T"
p1983
tp1984
Rp1985
g1625
F68.02222299575806
tp1986
a(F82623.0
g3
(g7
S'x\xb9X\x12\xd8\x07\x9cT'
p1987
tp1988
Rp1989
g1625
F66.95176696777344
tp1990
a(F9849.0
g3
(g7
S'@\xfa\x96s\xf3t\xa1T'
p1991
tp1992
Rp1993
g1625
F66.95660209655762
tp1994
a(F34456.0
g3
(g7
S'\xfb\xeek\xf1\xf0\x9b\xb8T'
p1995
tp1996
Rp1997
g1625
F68.1277379989624
tp1998
a(F4577.0
g3
(g7
S'\xceD\xed\x17\x835\xa7T'
p1999
tp2000
Rp2001
g1625
F76.45098114013672
tp2002
a(F26006.0
g3
(g7
S'\x92\xc9\x8b\xd4|D\xb9T'
p2003
tp2004
Rp2005
g1625
F74.68564486503601
tp2006
a(F14102.0
g3
(g7
S'\x93v*v;\xe1\x88T'
p2007
tp2008
Rp2009
g1625
F76.17543911933899
tp2010
a(F12313.0
g3
(g7
S'\x07b\x18t\xdcl\xa5T'
p2011
tp2012
Rp2013
g1625
F67.89565205574036
tp2014
a(F6193.0
g3
(g7
S'\xcd\x8a\xce\xcd(\x90WT'
p2015
tp2016
Rp2017
g1625
F70.11923599243164
tp2018
a(F4337.0
g3
(g7
S'\xb6\x93\xd0`Y\x01\x9dT'
p2019
tp2020
Rp2021
g1625
F67.63837695121765
tp2022
aaI65
aI334
aF0.46584296226501465
aa(lp2023
(lp2024
(F5.0
g3
(g7
S'\xe8K\xca\xcd\xe8\x88\xe2?'
p2025
tp2026
Rp2027
(lp2028
I0
aI700
aF7.845458030700684
tp2029
a(F231.0
g3
(g7
S'\x08\x083\x10C\xc7\xe0?'
p2030
tp2031
Rp2032
g2028
F8.586289167404175
tp2033
a(F5.0
g3
(g7
S'\xecY?\x9a\xdf\xa3\xe1?'
p2034
tp2035
Rp2036
g2028
F5.174666881561279
tp2037
a(F3.0
g3
(g7
S'\x04\x0cW\xf9\xecp\x80@'
p2038
tp2039
Rp2040
g2028
F6.29674506187439
tp2041
a(F64.0
g3
(g7
S'\xd4m\xa8\x88\xc0\xb6\xe0?'
p2042
tp2043
Rp2044
g2028
F8.08391284942627
tp2045
a(F44.0
g3
(g7
S'\\T\xd4i\n\xd3\xe0?'
p2046
tp2047
Rp2048
g2028
F7.748356103897095
tp2049
a(F3.0
g3
(g7
S'\xe4P\x93?\x06[\x7f@'
p2050
tp2051
Rp2052
g2028
F5.292224884033203
tp2053
a(F11.0
g3
(g7
S'\xa0\xf1I\x98\xf7x\xe1?'
p2054
tp2055
Rp2056
g2028
F5.211047887802124
tp2057
a(F26.0
g3
(g7
S'\x84y\xb1T\xa1\xf9\xe0?'
p2058
tp2059
Rp2060
g2028
F5.347121953964233
tp2061
a(F4.0
g3
(g7
S'\xc0\xe0@o\x193\xe2?'
p2062
tp2063
Rp2064
g2028
F5.210223913192749
tp2065
a(F25.0
g3
(g7
S'4\x90\xbb\x0e\x8e\xfa\xe0?'
p2066
tp2067
Rp2068
g2028
F5.258558034896851
tp2069
a(F3.0
g3
(g7
S'\x1aa\x1c\x96^_\x81@'
p2070
tp2071
Rp2072
g2028
F5.261674165725708
tp2073
a(F15.0
g3
(g7
S'T\x975V\xf9\xfb\xe0?'
p2074
tp2075
Rp2076
g2028
F5.1784350872039795
tp2077
a(F11.0
g3
(g7
S'\xf0\xf8p\x9b\xc5\xfc\xe0?'
p2078
tp2079
Rp2080
g2028
F5.16159200668335
tp2081
a(F11.0
g3
(g7
S' \xd3L\xaf\x95\x87\xe1?'
p2082
tp2083
Rp2084
g2028
F5.135724067687988
tp2085
a(F133.0
g3
(g7
S'\x8c|\x9c\xcd\xec\xc1\xe0?'
p2086
tp2087
Rp2088
g2028
F5.254726886749268
tp2089
a(F7.0
g3
(g7
S'`\x84m\xaa\xe8d\xe0?'
p2090
tp2091
Rp2092
g2028
F5.314258098602295
tp2093
a(F7.0
g3
(g7
S'\xa8\x02\xb84\x10R\xe0?'
p2094
tp2095
Rp2096
g2028
F6.913612127304077
tp2097
a(F8.0
g3
(g7
S'\xd0/<^\x9c+\xe1?'
p2098
tp2099
Rp2100
g2028
F5.582494020462036
tp2101
a(F122.0
g3
(g7
S'L\x11\x0fs\x02\xcc\xe0?'
p2102
tp2103
Rp2104
g2028
F5.945230960845947
tp2105
a(F21.0
g3
(g7
S'\x8cZ\xf9\xba\x97q\xe0?'
p2106
tp2107
Rp2108
g2028
F6.798290967941284
tp2109
a(F60.0
g3
(g7
S'0r\x8a]\xae\xd4\xe0?'
p2110
tp2111
Rp2112
g2028
F5.27736496925354
tp2113
a(F5.0
g3
(g7
S'hF\x8c\xabP\xae\xf0?'
p2114
tp2115
Rp2116
g2028
F5.380034923553467
tp2117
a(F12.0
g3
(g7
S'l\x82~\xb0\x04|\xe1?'
p2118
tp2119
Rp2120
g2028
F5.584812164306641
tp2121
a(F12.0
g3
(g7
S'\x94\x7fB\xf4^\xf0\xe0?'
p2122
tp2123
Rp2124
g2028
F5.702369928359985
tp2125
a(F11.0
g3
(g7
S't\x8b\xf1\x97S\r\xe1?'
p2126
tp2127
Rp2128
g2028
F5.2970240116119385
tp2129
a(F3.0
g3
(g7
S'~pS\x08Z\x91\x7f@'
p2130
tp2131
Rp2132
g2028
F5.338006019592285
tp2133
a(F190.0
g3
(g7
S'\xe8\xafw\xc2\xc5\xc5\xe0?'
p2134
tp2135
Rp2136
g2028
F5.275429010391235
tp2137
a(F3.0
g3
(g7
S'\x7f\xb7%$\xf0\xd2\x83@'
p2138
tp2139
Rp2140
g2028
F5.291515827178955
tp2141
a(F20.0
g3
(g7
S'p\xa28G\xa4c\xe0?'
p2142
tp2143
Rp2144
g2028
F5.298233985900879
tp2145
a(F12.0
g3
(g7
S'\xd8\x8d-\x9d k\xe1?'
p2146
tp2147
Rp2148
g2028
F5.293068885803223
tp2149
a(F12.0
g3
(g7
S'TaG\xf2\x90\xba\xe0?'
p2150
tp2151
Rp2152
g2028
F5.26065993309021
tp2153
a(F7.0
g3
(g7
S'\xa4\xaa\xb6\xb0I\xa9\xe0?'
p2154
tp2155
Rp2156
g2028
F5.120444059371948
tp2157
a(F106.0
g3
(g7
S'\x9cT+,\x00\xc0\xe0?'
p2158
tp2159
Rp2160
g2028
F5.075979948043823
tp2161
a(F13.0
g3
(g7
S'l\xb6\xa4\xaeB\xff\xe0?'
p2162
tp2163
Rp2164
g2028
F5.071824073791504
tp2165
a(F43.0
g3
(g7
S'\x80\xb6\xd4\x8fy\x94\xe0?'
p2166
tp2167
Rp2168
g2028
F5.06566596031189
tp2169
a(F4.0
g3
(g7
S'\x80\xa7\x94\xffr[\xf1?'
p2170
tp2171
Rp2172
g2028
F5.0548529624938965
tp2173
a(F3.0
g3
(g7
S'&O\x930\xd7\xc4}@'
p2174
tp2175
Rp2176
g2028
F5.1269261837005615
tp2177
a(F4.0
g3
(g7
S'|\x00\x9dP\xc4\x91\xe2?'
p2178
tp2179
Rp2180
g2028
F5.194025039672852
tp2181
a(F222.0
g3
(g7
S'\xe8;<^7\xc7\xe0?'
p2182
tp2183
Rp2184
g2028
F5.07785177230835
tp2185
a(F13.0
g3
(g7
S'\\\x892;g\x02\xe1?'
p2186
tp2187
Rp2188
g2028
F5.125840902328491
tp2189
a(F5.0
g3
(g7
S'H\x1d*3\xd2\x08\xe2?'
p2190
tp2191
Rp2192
g2028
F5.141779184341431
tp2193
a(F24.0
g3
(g7
S'\x8cX\xa1y\xef\x87\xe0?'
p2194
tp2195
Rp2196
g2028
F5.135094165802002
tp2197
a(F5.0
g3
(g7
S'\x10g\x8aBx\x97\xe0?'
p2198
tp2199
Rp2200
g2028
F5.080589056015015
tp2201
a(F20.0
g3
(g7
S'\x94\x88\xe6\x9b\x8b\x05\xe1?'
p2202
tp2203
Rp2204
g2028
F5.303538084030151
tp2205
a(F21.0
g3
(g7
S'\xfc\x16t\xa7 \x96\xe0?'
p2206
tp2207
Rp2208
g2028
F5.166692018508911
tp2209
a(F3.0
g3
(g7
S'\xfd\xf3\x89Mj\x04~@'
p2210
tp2211
Rp2212
g2028
F5.10574197769165
tp2213
a(F5.0
g3
(g7
S'\xd0Ti\x83\x9f\xf6\xe1?'
p2214
tp2215
Rp2216
g2028
F5.1301538944244385
tp2217
a(F39.0
g3
(g7
S'\xf0\xe19:\xce\xe9\xe0?'
p2218
tp2219
Rp2220
g2028
F5.063022136688232
tp2221
a(F51.0
g3
(g7
S'@\x7fP/\x97\xc8\xe0?'
p2222
tp2223
Rp2224
g2028
F5.158570051193237
tp2225
a(F5.0
g3
(g7
S'\xe8\x0b\xad\xa9Ag\xe1?'
p2226
tp2227
Rp2228
g2028
F5.099441051483154
tp2229
a(F3.0
g3
(g7
S's1\xe1F~~~@'
p2230
tp2231
Rp2232
g2028
F5.115817070007324
tp2233
a(F9.0
g3
(g7
S'\xfc+P\x99L\xa4\xe1?'
p2234
tp2235
Rp2236
g2028
F5.082159996032715
tp2237
a(F4.0
g3
(g7
S'l?D1@\\\xe0?'
p2238
tp2239
Rp2240
g2028
F5.091417074203491
tp2241
a(F9.0
g3
(g7
S'T[\x8a\xb5\x82\x82\xe0?'
p2242
tp2243
Rp2244
g2028
F5.2132580280303955
tp2245
a(F13.0
g3
(g7
S',\x10\x1f\xaa\x0c_\xe1?'
p2246
tp2247
Rp2248
g2028
F5.154544115066528
tp2249
a(F19.0
g3
(g7
S'\x18e\xab*\x1f\xf5\xe0?'
p2250
tp2251
Rp2252
g2028
F5.10216212272644
tp2253
a(F4.0
g3
(g7
S'H\xa8\x1c\x84\xfc\x80\xde?'
p2254
tp2255
Rp2256
g2028
F5.155452013015747
tp2257
a(F4.0
g3
(g7
S'L^\xcc;S\xe3\xe1?'
p2258
tp2259
Rp2260
g2028
F5.189868927001953
tp2261
a(F7.0
g3
(g7
S'\x9c;\xa9\x11\xa2\xec\xe0?'
p2262
tp2263
Rp2264
g2028
F5.1721320152282715
tp2265
a(F17.0
g3
(g7
S'\xa0#\x1f\xca\xf7\xe0\xe0?'
p2266
tp2267
Rp2268
g2028
F5.215660095214844
tp2269
a(F20.0
g3
(g7
S'\\ \xa2->t\xe0?'
p2270
tp2271
Rp2272
g2028
F5.120805025100708
tp2273
a(F28.0
g3
(g7
S'\xd4\xa6\xe5\x8c\x1c\xf9\xe0?'
p2274
tp2275
Rp2276
g2028
F5.138580083847046
tp2277
a(F6.0
g3
(g7
S'\x8c\xfcPQe|\xe1?'
p2278
tp2279
Rp2280
g2028
F5.144057035446167
tp2281
a(F6.0
g3
(g7
S'4\x15\xb9\xddpa\xe1?'
p2282
tp2283
Rp2284
g2028
F5.072932004928589
tp2285
a(F63.0
g3
(g7
S'D\xcdk\xb3V\xb8\xe0?'
p2286
tp2287
Rp2288
g2028
F5.050533056259155
tp2289
a(F4.0
g3
(g7
S'\x00\xaeF]\xf4\xdb\xde?'
p2290
tp2291
Rp2292
g2028
F5.0674519538879395
tp2293
a(F65.0
g3
(g7
S'0\xb8\xbd\xc2B\xb7\xe0?'
p2294
tp2295
Rp2296
g2028
F5.041198968887329
tp2297
a(F23.0
g3
(g7
S'\x0c.\xa1\xe7h\xbe\xe0?'
p2298
tp2299
Rp2300
g2028
F5.045392036437988
tp2301
a(F71.0
g3
(g7
S'(\xb1\x9e\xf8\x13\xde\xe0?'
p2302
tp2303
Rp2304
g2028
F5.026528835296631
tp2305
a(F7.0
g3
(g7
S'\xc0\xea\xb50\xc9\xee\xdf?'
p2306
tp2307
Rp2308
g2028
F5.0576488971710205
tp2309
a(F3.0
g3
(g7
S'f\x11d!\xae\xc9\x80@'
p2310
tp2311
Rp2312
g2028
F5.0444560050964355
tp2313
a(F10.0
g3
(g7
S'\x0c\xa3W\x17\xc40\xe0?'
p2314
tp2315
Rp2316
g2028
F5.1123950481414795
tp2317
a(F4.0
g3
(g7
S'\xf4\x83\x88W\xe0\x91\xe2?'
p2318
tp2319
Rp2320
g2028
F5.066382169723511
tp2321
a(F3.0
g3
(g7
S'14\x93\xb3\x00\xf9~@'
p2322
tp2323
Rp2324
g2028
F5.086165189743042
tp2325
a(F3.0
g3
(g7
S'\xb4\xed\x8e\x94\xc0\xb5~@'
p2326
tp2327
Rp2328
g2028
F5.063939094543457
tp2329
a(F3.0
g3
(g7
S'\x9c\xbf\xa4\xd2\xd9%|@'
p2330
tp2331
Rp2332
g2028
F5.118429183959961
tp2333
a(F14.0
g3
(g7
S'\xdc.\x11-\x17]\xe0?'
p2334
tp2335
Rp2336
g2028
F5.076304912567139
tp2337
a(F3.0
g3
(g7
S'\xe1\x0b\xdeu\xf7\xee{@'
p2338
tp2339
Rp2340
g2028
F5.03199315071106
tp2341
a(F11.0
g3
(g7
S'\xdc\x86iN\xb1\x1d\xe1?'
p2342
tp2343
Rp2344
g2028
F5.053277015686035
tp2345
a(F111.0
g3
(g7
S'\xf42\xd9V\xa3\xc7\xe0?'
p2346
tp2347
Rp2348
g2028
F5.068712949752808
tp2349
a(F47.0
g3
(g7
S'\xc4\xe5\x0b\xf2\x9e\xf8\xe0?'
p2350
tp2351
Rp2352
g2028
F5.040244102478027
tp2353
a(F3.0
g3
(g7
S'\xa2\xdb\x88\x99\x1a\xd6\x7f@'
p2354
tp2355
Rp2356
g2028
F5.049934148788452
tp2357
a(F6.0
g3
(g7
S'L2\n\xcb\xd2\x1d\xe1?'
p2358
tp2359
Rp2360
g2028
F5.037083864212036
tp2361
a(F295.0
g3
(g7
S'`\xbc}\x87\xa9\xc4\xe0?'
p2362
tp2363
Rp2364
g2028
F5.089327096939087
tp2365
a(F5.0
g3
(g7
S'\xa84\xb8\xd4\xc9\xfd\xde?'
p2366
tp2367
Rp2368
g2028
F5.106535196304321
tp2369
a(F3.0
g3
(g7
S'\x1d$\x7f_6s~@'
p2370
tp2371
Rp2372
g2028
F5.059311866760254
tp2373
a(F38.0
g3
(g7
S'\xe4\xcc\xcf\x83\xc1\xc9\xe0?'
p2374
tp2375
Rp2376
g2028
F5.050364971160889
tp2377
a(F3.0
g3
(g7
S'y\xe1\x12C\xd6\xfa\x81@'
p2378
tp2379
Rp2380
g2028
F5.0217320919036865
tp2381
a(F3.0
g3
(g7
S'(_l\xf6\xdeC~@'
p2382
tp2383
Rp2384
g2028
F5.069432973861694
tp2385
a(F3.0
g3
(g7
S'\xb0q\xd0C\x9c\xd6\x7f@'
p2386
tp2387
Rp2388
g2028
F5.031933069229126
tp2389
a(F8.0
g3
(g7
S'\xc4\xa6\xe8\x85?g\xe1?'
p2390
tp2391
Rp2392
g2028
F5.024251937866211
tp2393
a(F7.0
g3
(g7
S'\x00\xbb\xc5T\x7fI\xe1?'
p2394
tp2395
Rp2396
g2028
F5.084160089492798
tp2397
a(F4.0
g3
(g7
S'L\xfc\xe7\xf0\x7fW\xe1?'
p2398
tp2399
Rp2400
g2028
F5.014338970184326
tp2401
a(F18.0
g3
(g7
S'\xbcLk\x0e\xb3\x13\xe1?'
p2402
tp2403
Rp2404
g2028
F5.02896785736084
tp2405
a(F11.0
g3
(g7
S'\xdc\x1c\x1bV\xeex\xe0?'
p2406
tp2407
Rp2408
g2028
F5.0636680126190186
tp2409
a(F133.0
g3
(g7
S',g\xd9&\x8c\xcf\xe0?'
p2410
tp2411
Rp2412
g2028
F5.14510703086853
tp2413
a(F14.0
g3
(g7
S'P8\xe0\x8as\x14\xe1?'
p2414
tp2415
Rp2416
g2028
F5.1026928424835205
tp2417
a(F8.0
g3
(g7
S'd\xcf\r\xb2Gc\xe1?'
p2418
tp2419
Rp2420
g2028
F5.139925003051758
tp2421
a(F6.0
g3
(g7
S'\x90*\x9f\x0c\x00\xe3\xdf?'
p2422
tp2423
Rp2424
g2028
F5.146836996078491
tp2425
aaI7
aI11
aF0.112274169921875
aa(lp2426
(lp2427
(F24432.0
g3
(g7
S'\xd2\x99\xa3\xda\xfb\xffG\xc0'
p2428
tp2429
Rp2430
(lp2431
I-168
aI100
aF27.867939949035645
tp2432
a(F5722.0
g3
(g7
S'\xae\xa0\x163\xff\xff^\xc0'
p2433
tp2434
Rp2435
g2431
F27.097499132156372
tp2436
a(F19209.0
g3
(g7
S'\x00}\xdb\xa7\xf8\xff/\xc0'
p2437
tp2438
Rp2439
g2431
F27.17940592765808
tp2440
a(F8549.0
g3
(g7
S'g\x8f\xed\x84\xfd\x7f`\xc0'
p2441
tp2442
Rp2443
g2431
F27.184293031692505
tp2444
a(F24836.0
g3
(g7
S'!\x8f\x86e\xff\xffb\xc0'
p2445
tp2446
Rp2447
g2431
F27.766146898269653
tp2448
a(F16452.0
g3
(g7
S'\xba\x19\xc6\x1d\xff\xff_\xc0'
p2449
tp2450
Rp2451
g2431
F26.915766954421997
tp2452
a(F12220.0
g3
(g7
S'\x04\xf1B\xc2\x00\x00E\xc0'
p2453
tp2454
Rp2455
g2431
F27.498451948165894
tp2456
a(F35256.0
g3
(g7
S'\x18\x07KF\xff\x7f`\xc0'
p2457
tp2458
Rp2459
g2431
F28.070590019226074
tp2460
a(F195362.0
g3
(g7
S'\x90\x8b\xf3o\xff\xffA\xc0'
p2461
tp2462
Rp2463
g2431
F27.84030508995056
tp2464
a(F9229.0
g3
(g7
S'\xfd\x83\xf6~\xfd\xffP\xc0'
p2465
tp2466
Rp2467
g2431
F27.72130799293518
tp2468
a(F15568.0
g3
(g7
S'\x98\x15\xe1/\xf7\xff3\xc0'
p2469
tp2470
Rp2471
g2431
F27.650068044662476
tp2472
a(F20560.0
g3
(g7
S'\x92\\\xa5\xf2\xfe\xff\\\xc0'
p2473
tp2474
Rp2475
g2431
F27.36681604385376
tp2476
a(F41678.0
g3
(g7
S'\xcf\xdb\xc6<\xff\xff^\xc0'
p2477
tp2478
Rp2479
g2431
F27.432520866394043
tp2480
a(F24228.0
g3
(g7
S'Wc\xd0\xd0\xff\x7fd\xc0'
p2481
tp2482
Rp2483
g2431
F27.670669078826904
tp2484
a(F39712.0
g3
(g7
S'0;\x04\x7f\xfe\xff+\xc0'
p2485
tp2486
Rp2487
g2431
F27.89525604248047
tp2488
a(F15323.0
g3
(g7
S'3-0R\xfe\x7fb\xc0'
p2489
tp2490
Rp2491
g2431
F27.894747018814087
tp2492
a(F7548.0
g3
(g7
S'\xe0\xf8y\x1b\xfd\xffd\xc0'
p2493
tp2494
Rp2495
g2431
F27.731501817703247
tp2496
a(F16798.0
g3
(g7
S'3\xe4J\x86\xff\x7fc\xc0'
p2497
tp2498
Rp2499
g2431
F28.0490620136261
tp2500
a(F16280.0
g3
(g7
S';\x88(\xab\xfe\x7fd\xc0'
p2501
tp2502
Rp2503
g2431
F28.131150007247925
tp2504
a(F31031.0
g3
(g7
S'(\t\x98\xe8\xff\xffT\xc0'
p2505
tp2506
Rp2507
g2431
F29.820966958999634
tp2508
a(F9188.0
g3
(g7
S'c\xa5\x12\n\xfd\xffc\xc0'
p2509
tp2510
Rp2511
g2431
F28.739413022994995
tp2512
a(F12836.0
g3
(g7
S'\xcd\xa7\xc5"\xfe\xffa\xc0'
p2513
tp2514
Rp2515
g2431
F28.683063983917236
tp2516
a(F10524.0
g3
(g7
S'H\x9afv\xfa\xffI\xc0'
p2517
tp2518
Rp2519
g2431
F28.211536169052124
tp2520
a(F37877.0
g3
(g7
S'\xdc\xcc\xe2n\xff\xff_\xc0'
p2521
tp2522
Rp2523
g2431
F27.723588943481445
tp2524
a(F5208.0
g3
(g7
S'^u\xf5\xb5\xfa\xff]\xc0'
p2525
tp2526
Rp2527
g2431
F28.120924949645996
tp2528
a(F17749.0
g3
(g7
S'\xa2\x8a\xc86\xfc\xffI\xc0'
p2529
tp2530
Rp2531
g2431
F30.350069999694824
tp2532
a(F16423.0
g3
(g7
S'\x90z\x7f\x8e\xfe\xffc\xc0'
p2533
tp2534
Rp2535
g2431
F28.145025968551636
tp2536
a(F25967.0
g3
(g7
S'n\n\x04\xb8\xfe\xffP\xc0'
p2537
tp2538
Rp2539
g2431
F28.040626049041748
tp2540
a(F45336.0
g3
(g7
S'\xc7U\xa8\xfa\xfe\xffS\xc0'
p2541
tp2542
Rp2543
g2431
F30.3917179107666
tp2544
a(F1482740.0
g3
(g7
S'S\xd1\xb6\xf6\xff\xffX\xc0'
p2545
tp2546
Rp2547
g2431
F29.155063152313232
tp2548
a(F8348.0
g3
(g7
S'\xe2y\xa0[\xfd\xffQ\xc0'
p2549
tp2550
Rp2551
g2431
F28.931102991104126
tp2552
a(F13925.0
g3
(g7
S'\xa8i#\x1b\xff\xff_\xc0'
p2553
tp2554
Rp2555
g2431
F29.548686981201172
tp2556
a(F28369.0
g3
(g7
S'\t\xdc\xfay\xfe\xffR\xc0'
p2557
tp2558
Rp2559
g2431
F29.084280014038086
tp2560
a(F59643.0
g3
(g7
S'P\x17F\xa5\xfd\xff;\xc0'
p2561
tp2562
Rp2563
g2431
F40.45518183708191
tp2564
a(F15844.0
g3
(g7
S'\xa0W-\xb8\xfc\xff?\xc0'
p2565
tp2566
Rp2567
g2431
F36.136662006378174
tp2568
a(F10100.0
g3
(g7
S'\xae\x175\xcb\xfc\xff\\\xc0'
p2569
tp2570
Rp2571
g2431
F33.045984983444214
tp2572
a(F16113.0
g3
(g7
S'\x14>u\xbc\xfc\xffI\xc0'
p2573
tp2574
Rp2575
g2431
F28.80986714363098
tp2576
a(F22951.0
g3
(g7
S'\x9cO\xd9\xe5\xfe\xffQ\xc0'
p2577
tp2578
Rp2579
g2431
F28.544750213623047
tp2580
a(F109328.0
g3
(g7
S'\n\rO\n\x00\x80X\xc0'
p2581
tp2582
Rp2583
g2431
F28.170116901397705
tp2584
a(F56854.0
g3
(g7
S'\x00L\x04!\xec\xff\x0f\xc0'
p2585
tp2586
Rp2587
g2431
F28.391005039215088
tp2588
a(F86372.0
g3
(g7
S'\xa8x\xba\xc7\xff\xffa\xc0'
p2589
tp2590
Rp2591
g2431
F28.45297408103943
tp2592
a(F75139.0
g3
(g7
S'\xbc)\\\xa3\xff\xffb\xc0'
p2593
tp2594
Rp2595
g2431
F28.510557889938354
tp2596
a(F90475.0
g3
(g7
S'\x86\xf6S\xf6\xfe\xffI\xc0'
p2597
tp2598
Rp2599
g2431
F27.57387089729309
tp2600
a(F21029.0
g3
(g7
S'~\xbc\xf6m\xff\xff`\xc0'
p2601
tp2602
Rp2603
g2431
F27.5862979888916
tp2604
a(F4308.0
g3
(g7
S'\xd82\xb1o\xfb\xffI\xc0'
p2605
tp2606
Rp2607
g2431
F27.25093913078308
tp2608
a(F24534.0
g3
(g7
S'\xc0r\x8a\xf8\xfd\xffP\xc0'
p2609
tp2610
Rp2611
g2431
F27.565866947174072
tp2612
a(F20858.0
g3
(g7
S'\x8e^r\xa6\xfd\xffK\xc0'
p2613
tp2614
Rp2615
g2431
F28.05166506767273
tp2616
a(F47573.0
g3
(g7
S'7\xae2\xb5\xff\x7fd\xc0'
p2617
tp2618
Rp2619
g2431
F28.147861003875732
tp2620
a(F100464.0
g3
(g7
S'1\x9fW\xa6\xff\xffR\xc0'
p2621
tp2622
Rp2623
g2431
F28.37698793411255
tp2624
a(F379830.0
g3
(g7
S'\x1c\xa6\xfd\xdf\xff\xffA\xc0'
p2625
tp2626
Rp2627
g2431
F27.321622133255005
tp2628
a(F37610.0
g3
(g7
S'r!\xd0\x8a\xff\xffd\xc0'
p2629
tp2630
Rp2631
g2431
F27.580930948257446
tp2632
a(F12374.0
g3
(g7
S'\x05c\x9a\x83\xfe\xffc\xc0'
p2633
tp2634
Rp2635
g2431
F27.665951013565063
tp2636
a(F6762.0
g3
(g7
S'H\xecD\x82\xe7\xff?\xc0'
p2637
tp2638
Rp2639
g2431
F27.725435972213745
tp2640
a(F18550.0
g3
(g7
S'\xcf\xaf\xd69\xfd\xff^\xc0'
p2641
tp2642
Rp2643
g2431
F27.478599071502686
tp2644
a(F330608.0
g3
(g7
S'\n\xae$\xce\xff\xffG\xc0'
p2645
tp2646
Rp2647
g2431
F27.767087936401367
tp2648
a(F27982.0
g3
(g7
S'Ve\xdc}\xfd\xffM\xc0'
p2649
tp2650
Rp2651
g2431
F27.421875953674316
tp2652
a(F8177.0
g3
(g7
S'\xef\xc9\xc23\xfa\xffR\xc0'
p2653
tp2654
Rp2655
g2431
F27.460519075393677
tp2656
a(F92941.0
g3
(g7
S'k-0\xcb\xff\xffU\xc0'
p2657
tp2658
Rp2659
g2431
F27.17962098121643
tp2660
a(F208836.0
g3
(g7
S'\x02<G\xdd\xff\x7fa\xc0'
p2661
tp2662
Rp2663
g2431
F27.454782962799072
tp2664
a(F250567.0
g3
(g7
S'\xc0\xf4P\xb6\xfd\xff\x0f\xc0'
p2665
tp2666
Rp2667
g2431
F26.928874015808105
tp2668
a(F21138.0
g3
(g7
S'8sS\x8f\xfb\xff3\xc0'
p2669
tp2670
Rp2671
g2431
F27.250128984451294
tp2672
a(F8335.0
g3
(g7
S'<n\xd6R\xf6\xffA\xc0'
p2673
tp2674
Rp2675
g2431
F27.593214988708496
tp2676
a(F7627.0
g3
(g7
S'\xa4*\xa9\x06\xfd\xffd\xc0'
p2677
tp2678
Rp2679
g2431
F27.50858497619629
tp2680
a(F11209.0
g3
(g7
S'<\x91\x95U\xf9\xffI\xc0'
p2681
tp2682
Rp2683
g2431
F27.505486011505127
tp2684
a(F532345.0
g3
(g7
S'V\xd2i\xe6\xff\xffM\xc0'
p2685
tp2686
Rp2687
g2431
F27.023658990859985
tp2688
a(F62213.0
g3
(g7
S"`\xb3\xad#\xfa\xff'\xc0"
p2689
tp2690
Rp2691
g2431
F26.891695976257324
tp2692
a(F389509.0
g3
(g7
S'cYN\xf1\xff\x7fc\xc0'
p2693
tp2694
Rp2695
g2431
F27.14235806465149
tp2696
a(F112142.0
g3
(g7
S'h\x143\xda\xfe\xff7\xc0'
p2697
tp2698
Rp2699
g2431
F28.862748861312866
tp2700
a(F29148.0
g3
(g7
S'\xa3\xdb\xd9\x10\xff\xffU\xc0'
p2701
tp2702
Rp2703
g2431
F29.28980588912964
tp2704
a(F9233.0
g3
(g7
S'\xf3\xbb,F\xfe\x7fa\xc0'
p2705
tp2706
Rp2707
g2431
F28.2572820186615
tp2708
a(F49994.0
g3
(g7
S'{\xe2\x00X\xff\xffU\xc0'
p2709
tp2710
Rp2711
g2431
F27.098476886749268
tp2712
a(F20280.0
g3
(g7
S'\xa0\r$\xa1\xf0\xff\x1f\xc0'
p2713
tp2714
Rp2715
g2431
F27.332118034362793
tp2716
a(F65202.0
g3
(g7
S'u\xe0\x8e\xd8\xff\x7fd\xc0'
p2717
tp2718
Rp2719
g2431
F27.898499965667725
tp2720
a(F7700.0
g3
(g7
S'x\xec\xf65\xfd\x7fd\xc0'
p2721
tp2722
Rp2723
g2431
F27.526790857315063
tp2724
a(F35439.0
g3
(g7
S'\x10\xb6*\xcf\xff\xffD\xc0'
p2725
tp2726
Rp2727
g2431
F27.080261945724487
tp2728
a(F8163.0
g3
(g7
S'\x8cr\xd1\xf0\xfd\x7f`\xc0'
p2729
tp2730
Rp2731
g2431
F27.20696187019348
tp2732
a(F85858.0
g3
(g7
S'vs\xb2\xcd\xff\x7f`\xc0'
p2733
tp2734
Rp2735
g2431
F27.141885995864868
tp2736
a(F4490.0
g3
(g7
S'E\x8d\xcf6\xfe\x7fR\xc0'
p2737
tp2738
Rp2739
g2431
F27.12407898902893
tp2740
a(F67316.0
g3
(g7
S'n1\x81:\xff\xffI\xc0'
p2741
tp2742
Rp2743
g2431
F27.69840383529663
tp2744
a(F226840.0
g3
(g7
S'\xcc\xd1f\n\x00\x00O\xc0'
p2745
tp2746
Rp2747
g2431
F26.84195303916931
tp2748
a(F111893.0
g3
(g7
S'\x8c\x96\x94\xce\xff\x7fc\xc0'
p2749
tp2750
Rp2751
g2431
F27.16509985923767
tp2752
a(F895758.0
g3
(g7
S"\xf0\x11s\xb0\xff\xff'\xc0"
p2753
tp2754
Rp2755
g2431
F26.907253980636597
tp2756
a(F13975.0
g3
(g7
S'Pp{\x90\xf2\xff?\xc0'
p2757
tp2758
Rp2759
g2431
F26.98633599281311
tp2760
a(F26887.0
g3
(g7
S'\xd8$W*\xff\xffd\xc0'
p2761
tp2762
Rp2763
g2431
F26.91296887397766
tp2764
a(F11633.0
g3
(g7
S'3\xc9\xe7\x13\xff\x7fc\xc0'
p2765
tp2766
Rp2767
g2431
F26.901188850402832
tp2768
a(F692243.0
g3
(g7
S'\xbf7\xef\xf9\xff\xffa\xc0'
p2769
tp2770
Rp2771
g2431
F27.140778064727783
tp2772
a(F33100.0
g3
(g7
S'(\xc3\xac\xb2\xff\xffN\xc0'
p2773
tp2774
Rp2775
g2431
F26.83093285560608
tp2776
a(F88329.0
g3
(g7
S'\xd4\x85\xe4\xab\xff\xffA\xc0'
p2777
tp2778
Rp2779
g2431
F26.82683801651001
tp2780
a(F108497.0
g3
(g7
S'\x96O\x83\xf6\xff\xffb\xc0'
p2781
tp2782
Rp2783
g2431
F26.78581404685974
tp2784
a(F49115.0
g3
(g7
S'\xa3tpz\xff\x7fc\xc0'
p2785
tp2786
Rp2787
g2431
F26.83063292503357
tp2788
a(F99691.0
g3
(g7
S'I\xeb\xba\xf4\xff\xffd\xc0'
p2789
tp2790
Rp2791
g2431
F26.784881114959717
tp2792
a(F55573.0
g3
(g7
S'\xce\xac|\xac\xff\x7fd\xc0'
p2793
tp2794
Rp2795
g2431
F26.79980206489563
tp2796
a(F290111.0
g3
(g7
S'\xd8\xd4\x0b\xf3\xff\xffQ\xc0'
p2797
tp2798
Rp2799
g2431
F26.843986988067627
tp2800
a(F10188.0
g3
(g7
S'.n#\x8c\xf9\xffG\xc0'
p2801
tp2802
Rp2803
g2431
F26.888418912887573
tp2804
a(F5566.0
g3
(g7
S'\x1d\xc7\x8e\x82\xfd\xffS\xc0'
p2805
tp2806
Rp2807
g2431
F26.844441890716553
tp2808
a(F5915.0
g3
(g7
S'`\xde\xf5\xa9\xb5\xff\x1f\xc0'
p2809
tp2810
Rp2811
g2431
F26.839498043060303
tp2812
a(F102929.0
g3
(g7
S'\x1awr\x05\x00\xc0a\xc0'
p2813
tp2814
Rp2815
g2431
F26.888471126556396
tp2816
a(F353271.0
g3
(g7
S'\xc0jf0\xfe\xff\x1f\xc0'
p2817
tp2818
Rp2819
g2431
F27.037587881088257
tp2820
a(F18964.0
g3
(g7
S'\xde\xcd\xab\x12\xfb\xffO\xc0'
p2821
tp2822
Rp2823
g2431
F27.00700306892395
tp2824
a(F43137.0
g3
(g7
S'B{\x9f\xfb\xfe\xffW\xc0'
p2825
tp2826
Rp2827
g2431
F26.865967988967896
tp2828
aaF31.0
aI17
aF0.30591416358947754
aa(lp2829
(lp2830
(F614.0
g3
(g7
S'\xff\x03\xcfm3\xcc_\xc0'
p2831
tp2832
Rp2833
(lp2834
I-168
aI168
aF2.5756471157073975
tp2835
a(F608.0
g3
(g7
S'\x7fn\xed&\x9e\xc1_\xc0'
p2836
tp2837
Rp2838
g2834
F2.565868854522705
tp2839
a(F619.0
g3
(g7
S'\xf7\xb6\x95\xa0\x07\xc8_\xc0'
p2840
tp2841
Rp2842
g2834
F2.564049005508423
tp2843
a(F600.0
g3
(g7
S'\xe7N\x7f\xef]\xcc_\xc0'
p2844
tp2845
Rp2846
g2834
F2.5598440170288086
tp2847
a(F605.0
g3
(g7
S'\x1f\xb7\xe0\x94\xba\xeb_\xc0'
p2848
tp2849
Rp2850
g2834
F2.555361032485962
tp2851
a(F614.0
g3
(g7
S'\x0b\x83d\xc5\x0f\xc8_\xc0'
p2852
tp2853
Rp2854
g2834
F2.559993028640747
tp2855
a(F615.0
g3
(g7
S'\x1f\xf9\xd3\xb7_\xeb_\xc0'
p2856
tp2857
Rp2858
g2834
F2.56241512298584
tp2859
a(F621.0
g3
(g7
S'\xcbI\xfb\xc8\xc5\xff_\xc0'
p2860
tp2861
Rp2862
g2834
F2.559659004211426
tp2863
a(F621.0
g3
(g7
S'\xf7\x8f\xb3\xb7\xe4\xfd_\xc0'
p2864
tp2865
Rp2866
g2834
F2.5540130138397217
tp2867
a(F619.0
g3
(g7
S'/\x01v\xe2\xf1\xdf_\xc0'
p2868
tp2869
Rp2870
g2834
F2.561192035675049
tp2871
a(F604.0
g3
(g7
S'\x0f|\xba\xdb\xd4\xeb_\xc0'
p2872
tp2873
Rp2874
g2834
F2.5704269409179688
tp2875
a(F621.0
g3
(g7
S'\xa7\x9b\n\x1dd\xd1_\xc0'
p2876
tp2877
Rp2878
g2834
F2.5594120025634766
tp2879
a(F620.0
g3
(g7
S'\xc3\xe9w\xd0\x02\xe0_\xc0'
p2880
tp2881
Rp2882
g2834
F2.564122200012207
tp2883
a(F604.0
g3
(g7
S'\xd3KZ\xccP\xe0_\xc0'
p2884
tp2885
Rp2886
g2834
F2.5643861293792725
tp2887
a(F615.0
g3
(g7
S'\xdb\xd5\xf7\xbc]\xeb_\xc0'
p2888
tp2889
Rp2890
g2834
F2.5599138736724854
tp2891
a(F620.0
g3
(g7
S'3m\xeb\x10;\xeb_\xc0'
p2892
tp2893
Rp2894
g2834
F2.561415910720825
tp2895
a(F619.0
g3
(g7
S';\x08?D4\xeb_\xc0'
p2896
tp2897
Rp2898
g2834
F2.563283920288086
tp2899
a(F610.0
g3
(g7
S'\xe7D\xcf\x02\x8b\xeb_\xc0'
p2900
tp2901
Rp2902
g2834
F2.55869197845459
tp2903
a(F620.0
g3
(g7
S'o\x114+4\xeb_\xc0'
p2904
tp2905
Rp2906
g2834
F2.5549559593200684
tp2907
a(F597.0
g3
(g7
S'7\xba\xaa\xa6\x14\xfa_\xc0'
p2908
tp2909
Rp2910
g2834
F2.5607869625091553
tp2911
a(F597.0
g3
(g7
S'\x83\xcc0\xa7\xf6\xeb_\xc0'
p2912
tp2913
Rp2914
g2834
F2.5665550231933594
tp2915
a(F615.0
g3
(g7
S'\x0fh\xea\xc9t\xeb_\xc0'
p2916
tp2917
Rp2918
g2834
F2.5568530559539795
tp2919
a(F598.0
g3
(g7
S'\x87n\xfd\x9c\xb5\xd1_\xc0'
p2920
tp2921
Rp2922
g2834
F2.5493249893188477
tp2923
a(F607.0
g3
(g7
S'\xdf\xbcK!H\xcc_\xc0'
p2924
tp2925
Rp2926
g2834
F2.5539369583129883
tp2927
a(F611.0
g3
(g7
S'\x83\xdb\xd0\xf37\xcc_\xc0'
p2928
tp2929
Rp2930
g2834
F2.555401086807251
tp2931
a(F618.0
g3
(g7
S'\xf3\x9d\xcd\xffK\xeb_\xc0'
p2932
tp2933
Rp2934
g2834
F2.5541861057281494
tp2935
a(F622.0
g3
(g7
S'GF4+y\xfa_\xc0'
p2936
tp2937
Rp2938
g2834
F2.5593819618225098
tp2939
a(F614.0
g3
(g7
S'\xd7G\x94\x1b\xf3\xd7_\xc0'
p2940
tp2941
Rp2942
g2834
F2.5564889907836914
tp2943
a(F606.0
g3
(g7
S'\xf3\xb0`?\x05\xc5_\xc0'
p2944
tp2945
Rp2946
g2834
F2.5550689697265625
tp2947
a(F598.0
g3
(g7
S'\xcf\xb3=\xb1a\xcc_\xc0'
p2948
tp2949
Rp2950
g2834
F2.557157039642334
tp2951
a(F601.0
g3
(g7
S'w\xb4\xb4\xa1Y\xcc_\xc0'
p2952
tp2953
Rp2954
g2834
F2.551085948944092
tp2955
a(F610.0
g3
(g7
S'\x07Z\xdb\\\x0f\xd8_\xc0'
p2956
tp2957
Rp2958
g2834
F2.5557971000671387
tp2959
a(F621.0
g3
(g7
S'\x0f\x14a\xce\xdb\xd7_\xc0'
p2960
tp2961
Rp2962
g2834
F2.5644619464874268
tp2963
a(F605.0
g3
(g7
S'\x8b\x03\x12\xb0U\xcc_\xc0'
p2964
tp2965
Rp2966
g2834
F2.565443992614746
tp2967
a(F614.0
g3
(g7
S'\xefd\x03\x05u\xeb_\xc0'
p2968
tp2969
Rp2970
g2834
F2.5588150024414062
tp2971
a(F609.0
g3
(g7
S'\x0bY"7\x9e\xc1_\xc0'
p2972
tp2973
Rp2974
g2834
F2.553483009338379
tp2975
a(F621.0
g3
(g7
S'\xb7T\xd0\x16\x7f\xfa_\xc0'
p2976
tp2977
Rp2978
g2834
F2.5586819648742676
tp2979
a(F617.0
g3
(g7
S'\xb3\x03NH\xeb\xc2_\xc0'
p2980
tp2981
Rp2982
g2834
F2.5551841259002686
tp2983
a(F607.0
g3
(g7
S'3\x9d5=<\xfa_\xc0'
p2984
tp2985
Rp2986
g2834
F2.5601630210876465
tp2987
a(F617.0
g3
(g7
S'/\xf9\x90\x08-\xcc_\xc0'
p2988
tp2989
Rp2990
g2834
F2.5509979724884033
tp2991
a(F613.0
g3
(g7
S'Wb\x08\x16\x86\xeb_\xc0'
p2992
tp2993
Rp2994
g2834
F2.5677528381347656
tp2995
a(F617.0
g3
(g7
S'\xb7\xe9\xd780\xeb_\xc0'
p2996
tp2997
Rp2998
g2834
F2.5621728897094727
tp2999
a(F602.0
g3
(g7
S'\xa3\xcf\x82\xae\xd3\xeb_\xc0'
p3000
tp3001
Rp3002
g2834
F2.550920009613037
tp3003
a(F604.0
g3
(g7
S'\x0b|\xa0\x10\xcb\xeb_\xc0'
p3004
tp3005
Rp3006
g2834
F2.56148099899292
tp3007
a(F620.0
g3
(g7
S'\xef \xe0\x1fN\xeb_\xc0'
p3008
tp3009
Rp3010
g2834
F2.5590639114379883
tp3011
a(F611.0
g3
(g7
S'\xc3r\xb6\x9b\xdd\xfd_\xc0'
p3012
tp3013
Rp3014
g2834
F2.5580310821533203
tp3015
a(F616.0
g3
(g7
S'\x9fVi\x0b;\xeb_\xc0'
p3016
tp3017
Rp3018
g2834
F2.5536699295043945
tp3019
a(F617.0
g3
(g7
S'\xf3\x94\xa8}\x08\xe0_\xc0'
p3020
tp3021
Rp3022
g2834
F2.5626790523529053
tp3023
a(F614.0
g3
(g7
S'\xa3\xf6\xbf\x0e\x02\xc5_\xc0'
p3024
tp3025
Rp3026
g2834
F2.5593318939208984
tp3027
a(F563.0
g3
(g7
S'S\x91\xb1\xb7\xa9\xed_\xc0'
p3028
tp3029
Rp3030
g2834
F2.56386399269104
tp3031
a(F595.0
g3
(g7
S'\xb3aZ\x1c\x01\xec_\xc0'
p3032
tp3033
Rp3034
g2834
F2.5604350566864014
tp3035
a(F605.0
g3
(g7
S'O\x9b\x8d\xf5D\xcc_\xc0'
p3036
tp3037
Rp3038
g2834
F2.562174081802368
tp3039
a(F606.0
g3
(g7
S'W\xfcm+\xb7\xeb_\xc0'
p3040
tp3041
Rp3042
g2834
F2.554382085800171
tp3043
a(F625.0
g3
(g7
S'\xcb\x96\x01Z\x80\xfa_\xc0'
p3044
tp3045
Rp3046
g2834
F2.553518056869507
tp3047
a(F620.0
g3
(g7
S'\x8f_\xcf_\x89\xff_\xc0'
p3048
tp3049
Rp3050
g2834
F2.5529770851135254
tp3051
a(F622.0
g3
(g7
S'\x13\x8bV=_\xd1_\xc0'
p3052
tp3053
Rp3054
g2834
F2.556457042694092
tp3055
a(F619.0
g3
(g7
S'\x0b\xce$z\xfe\xdf_\xc0'
p3056
tp3057
Rp3058
g2834
F2.5525240898132324
tp3059
a(F620.0
g3
(g7
S'\xdf \xafW|\xfa_\xc0'
p3060
tp3061
Rp3062
g2834
F2.572268009185791
tp3063
a(F619.0
g3
(g7
S'\xfbH\xe9\xbf%\xcc_\xc0'
p3064
tp3065
Rp3066
g2834
F2.5645320415496826
tp3067
a(F615.0
g3
(g7
S'\xc3vh\xd4\xfe\xd7_\xc0'
p3068
tp3069
Rp3070
g2834
F2.5658230781555176
tp3071
a(F616.0
g3
(g7
S'\x8b\x10ZPv\xd1_\xc0'
p3072
tp3073
Rp3074
g2834
F2.55875301361084
tp3075
a(F597.0
g3
(g7
S's\xb9\xd8\xf0\x07\xfa_\xc0'
p3076
tp3077
Rp3078
g2834
F2.558547019958496
tp3079
a(F615.0
g3
(g7
S'GT\xdb\x11g\xfa_\xc0'
p3080
tp3081
Rp3082
g2834
F2.556378126144409
tp3083
a(F605.0
g3
(g7
S'\x7f\xebp\xb8\xa9\xeb_\xc0'
p3084
tp3085
Rp3086
g2834
F2.5610902309417725
tp3087
a(F603.0
g3
(g7
S'\xd7\xd3\xfa\xd31\xfa_\xc0'
p3088
tp3089
Rp3090
g2834
F2.5588390827178955
tp3091
a(F581.0
g3
(g7
S'\x0f\xe2\xd0)\xf4\xd1_\xc0'
p3092
tp3093
Rp3094
g2834
F2.55812406539917
tp3095
a(F621.0
g3
(g7
S'[\xc5\xb5\x1c0\xeb_\xc0'
p3096
tp3097
Rp3098
g2834
F2.5684118270874023
tp3099
a(F608.0
g3
(g7
S'\xab\xd1bA\x13\xd8_\xc0'
p3100
tp3101
Rp3102
g2834
F2.556427001953125
tp3103
a(F621.0
g3
(g7
S'\xe3\xcb1\x87=\xeb_\xc0'
p3104
tp3105
Rp3106
g2834
F2.561182975769043
tp3107
a(F622.0
g3
(g7
S'\x1f8\x85!>\xeb_\xc0'
p3108
tp3109
Rp3110
g2834
F2.5610878467559814
tp3111
a(F620.0
g3
(g7
S"\xaf\xac\x8f'+\xcc_\xc0"
p3112
tp3113
Rp3114
g2834
F2.5550529956817627
tp3115
a(F612.0
g3
(g7
S'{)\x8c\xef\x00\xd8_\xc0'
p3116
tp3117
Rp3118
g2834
F2.563689947128296
tp3119
a(F621.0
g3
(g7
S'o\xc0x\xd4\x04\xc8_\xc0'
p3120
tp3121
Rp3122
g2834
F2.5578391551971436
tp3123
a(F612.0
g3
(g7
S'\xc7\xf1\x8a?\xec\xc2_\xc0'
p3124
tp3125
Rp3126
g2834
F2.5596179962158203
tp3127
a(F614.0
g3
(g7
S'S\xf0_\x88\x87\xff_\xc0'
p3128
tp3129
Rp3130
g2834
F2.5637600421905518
tp3131
a(F615.0
g3
(g7
S'\x93\xf5\x00=v\xd1_\xc0'
p3132
tp3133
Rp3134
g2834
F2.5654850006103516
tp3135
a(F595.0
g3
(g7
S'\xb3DZNW\xd8_\xc0'
p3136
tp3137
Rp3138
g2834
F2.557523012161255
tp3139
a(F617.0
g3
(g7
S'\x1f\x1b\xa2\x9a\x9a\xc1_\xc0'
p3140
tp3141
Rp3142
g2834
F2.5601861476898193
tp3143
a(F611.0
g3
(g7
S'\xff\x08i,\xec\xc2_\xc0'
p3144
tp3145
Rp3146
g2834
F2.5635881423950195
tp3147
a(F614.0
g3
(g7
S'\xe3\xa9G\xf5n\xeb_\xc0'
p3148
tp3149
Rp3150
g2834
F2.5649638175964355
tp3151
a(F615.0
g3
(g7
S'\xbb>\xc5\x1b\x06\xff_\xc0'
p3152
tp3153
Rp3154
g2834
F2.588228940963745
tp3155
a(F618.0
g3
(g7
S'g\xe2G\xf1m\xfa_\xc0'
p3156
tp3157
Rp3158
g2834
F2.5606448650360107
tp3159
a(F614.0
g3
(g7
S'\xc7\x99i\xbcL\xfa_\xc0'
p3160
tp3161
Rp3162
g2834
F2.5660929679870605
tp3163
a(F608.0
g3
(g7
S'\x8b\x07\x08\xe2\xa1\xeb_\xc0'
p3164
tp3165
Rp3166
g2834
F2.5659339427948
tp3167
a(F614.0
g3
(g7
S'cC\xa1\xcd\x05\xff_\xc0'
p3168
tp3169
Rp3170
g2834
F2.5633230209350586
tp3171
a(F614.0
g3
(g7
S'\xabw\x08\xb2\xff\xd7_\xc0'
p3172
tp3173
Rp3174
g2834
F2.561753988265991
tp3175
a(F616.0
g3
(g7
S'\x7fo\xa1~R\xeb_\xc0'
p3176
tp3177
Rp3178
g2834
F2.5694799423217773
tp3179
a(F612.0
g3
(g7
S'\xd3m\xb2\xb5~\xd1_\xc0'
p3180
tp3181
Rp3182
g2834
F2.5594561100006104
tp3183
a(F622.0
g3
(g7
S'\xaf\xca\xb0r\xf3\xdf_\xc0'
p3184
tp3185
Rp3186
g2834
F2.5610311031341553
tp3187
a(F613.0
g3
(g7
S'+`\now\xd1_\xc0'
p3188
tp3189
Rp3190
g2834
F2.557858943939209
tp3191
a(F620.0
g3
(g7
S'w\x94\x98S$\xeb_\xc0'
p3192
tp3193
Rp3194
g2834
F2.5650551319122314
tp3195
a(F596.0
g3
(g7
S'\x93\xcaOBX\xd8_\xc0'
p3196
tp3197
Rp3198
g2834
F2.5645220279693604
tp3199
a(F598.0
g3
(g7
S'\x97\xe84\xf1m\xe0_\xc0'
p3200
tp3201
Rp3202
g2834
F2.5639870166778564
tp3203
a(F605.0
g3
(g7
S'w\xb7(\xcd\xc2\xeb_\xc0'
p3204
tp3205
Rp3206
g2834
F2.5680360794067383
tp3207
a(F599.0
g3
(g7
S'\x1bZ\xa1\xac*\xfa_\xc0'
p3208
tp3209
Rp3210
g2834
F2.5622570514678955
tp3211
a(F615.0
g3
(g7
S'\xc3\x80\xb3\xa2\x9c\xc1_\xc0'
p3212
tp3213
Rp3214
g2834
F2.567734956741333
tp3215
a(F621.0
g3
(g7
S'3W\xd7?6\xeb_\xc0'
p3216
tp3217
Rp3218
g2834
F2.5591769218444824
tp3219
a(F622.0
g3
(g7
S'o\xb1\xd4\xd9\n\xc8_\xc0'
p3220
tp3221
Rp3222
g2834
F2.561012029647827
tp3223
a(F610.0
g3
(g7
S'\xf3\x99\x18~S\xfa_\xc0'
p3224
tp3225
Rp3226
g2834
F2.5633161067962646
tp3227
a(F613.0
g3
(g7
S'#\xd5\x91H\x85\xeb_\xc0'
p3228
tp3229
Rp3230
g2834
F2.557023048400879
tp3231
aaF4.0
aI18
aF0.04655790328979492
aa(lp3232
(lp3233
(F14.0
g3
(g7
S'6Vy\xc0}\r\r@'
p3234
tp3235
Rp3236
(lp3237
F1.0
aI823549
aF4.582934856414795
tp3238
a(F3.0
g3
(g7
S'N{\x92\xd4\xa4\x0e)A'
p3239
tp3240
Rp3241
g3237
F4.569122791290283
tp3242
a(F33.0
g3
(g7
S'^\xcd\xbd\x97S\xb2\n@'
p3243
tp3244
Rp3245
g3237
F4.5928120613098145
tp3246
a(F3.0
g3
(g7
S'\xfe\xa2\xd2k\x99\xe8(A'
p3247
tp3248
Rp3249
g3237
F4.568424940109253
tp3250
a(F3.0
g3
(g7
S'\xc1\x86\xf1\xda\xf9\xd7(A'
p3251
tp3252
Rp3253
g3237
F4.579824924468994
tp3254
a(F3.0
g3
(g7
S'\x82\xe8\xb0\xf6\xc1\xfd(A'
p3255
tp3256
Rp3257
g3237
F4.585770130157471
tp3258
a(F211.0
g3
(g7
S'\x0c\x811\xc8zlO@'
p3259
tp3260
Rp3261
g3237
F4.584755897521973
tp3262
a(F3.0
g3
(g7
S'!\x1fx!\x17 )A'
p3263
tp3264
Rp3265
g3237
F4.590626955032349
tp3266
a(F4.0
g3
(g7
S'\x82\xc9\xa3\x95\x90t\x00A'
p3267
tp3268
Rp3269
g3237
F4.586082935333252
tp3270
a(F20.0
g3
(g7
S'I\xc6\xf7\xb3\xdb\x90%A'
p3271
tp3272
Rp3273
g3237
F4.597352027893066
tp3274
a(F4.0
g3
(g7
S'\x99 \x07\xce\xac,\xe1@'
p3275
tp3276
Rp3277
g3237
F4.595527172088623
tp3278
a(F4.0
g3
(g7
S'\xae\x0cI\xed\xe9_\xf6@'
p3279
tp3280
Rp3281
g3237
F4.596200942993164
tp3282
a(F3.0
g3
(g7
S'\xc7\xa5I\x11\x1e\xdb(A'
p3283
tp3284
Rp3285
g3237
F4.596056938171387
tp3286
a(F3.0
g3
(g7
S'^_\x04g)\x1b)A'
p3287
tp3288
Rp3289
g3237
F4.5915868282318115
tp3290
a(F3.0
g3
(g7
S'p\xbf\x86\x811\t)A'
p3291
tp3292
Rp3293
g3237
F4.615750074386597
tp3294
a(F3.0
g3
(g7
S'\xc8\xb9`3\x80\xe9(A'
p3295
tp3296
Rp3297
g3237
F4.59976601600647
tp3298
a(F3.0
g3
(g7
S'\xee\x14\x98h\x8b\x16)A'
p3299
tp3300
Rp3301
g3237
F4.60403299331665
tp3302
a(F4.0
g3
(g7
S'-\xa7\x88\xf0\x87\xb4a@'
p3303
tp3304
Rp3305
g3237
F4.6108078956604
tp3306
a(F3.0
g3
(g7
S'\xe4\x93\xe4\xa30\xac(A'
p3307
tp3308
Rp3309
g3237
F4.628644943237305
tp3310
a(F4.0
g3
(g7
S'\x03\xa3A\xdfV\xd7#A'
p3311
tp3312
Rp3313
g3237
F4.618680000305176
tp3314
a(F6.0
g3
(g7
S"\x00\x99\xd2\xf0c`'A"
p3315
tp3316
Rp3317
g3237
F4.608082056045532
tp3318
a(F3.0
g3
(g7
S'\xfb\x0ci\xfc\x18\xee(A'
p3319
tp3320
Rp3321
g3237
F4.6131751537323
tp3322
a(F3.0
g3
(g7
S'\x01\x04/\xbd|\x1d)A'
p3323
tp3324
Rp3325
g3237
F4.611876964569092
tp3326
a(F3.0
g3
(g7
S't".42\xa8(A'
p3327
tp3328
Rp3329
g3237
F4.606423854827881
tp3330
a(F3.0
g3
(g7
S'\xdek\xe3\xa2*!)A'
p3331
tp3332
Rp3333
g3237
F4.613646030426025
tp3334
a(F3.0
g3
(g7
S"'\xf0\xb2\xd9\xaf\xee(A"
p3335
tp3336
Rp3337
g3237
F4.609308958053589
tp3338
a(F3.0
g3
(g7
S'e"\xbe7\xc4\xe0(A'
p3339
tp3340
Rp3341
g3237
F4.610358953475952
tp3342
a(F4.0
g3
(g7
S'd\x18s\xd0\xfc\xd2\x13A'
p3343
tp3344
Rp3345
g3237
F4.636413097381592
tp3346
a(F3.0
g3
(g7
S'\xee\x88\xd0_~Z(A'
p3347
tp3348
Rp3349
g3237
F4.603907823562622
tp3350
a(F3.0
g3
(g7
S'\xa4+\x8f\xd4\x88\xce(A'
p3351
tp3352
Rp3353
g3237
F4.606736898422241
tp3354
a(F10.0
g3
(g7
S'\xdb\x9e\x83x\x9a\xb9\x1aA'
p3355
tp3356
Rp3357
g3237
F4.603187084197998
tp3358
a(F4.0
g3
(g7
S'\x8b\xff\xb4\xc3P\x82\xf2@'
p3359
tp3360
Rp3361
g3237
F4.609771013259888
tp3362
a(F4.0
g3
(g7
S'_\xccT\xe3|\xe6\x08A'
p3363
tp3364
Rp3365
g3237
F4.6044580936431885
tp3366
a(F3.0
g3
(g7
S'\x04\xec\x88\xed\xc3\xd0(A'
p3367
tp3368
Rp3369
g3237
F4.6120240688323975
tp3370
a(F4.0
g3
(g7
S'\xd3\xf4Sb\x95\xf2\xf1@'
p3371
tp3372
Rp3373
g3237
F4.605447769165039
tp3374
a(F3.0
g3
(g7
S'T\xca\xc1O\x98@(A'
p3375
tp3376
Rp3377
g3237
F4.612600088119507
tp3378
a(F3.0
g3
(g7
S'](\xdd\x97z\x0f)A'
p3379
tp3380
Rp3381
g3237
F4.601325035095215
tp3382
a(F4.0
g3
(g7
S"\xbc\xea\xfc\xb3\xca\xbe'A"
p3383
tp3384
Rp3385
g3237
F4.606616973876953
tp3386
a(F4.0
g3
(g7
S"@f\x83\x99\xce\xbe'A"
p3387
tp3388
Rp3389
g3237
F4.594264984130859
tp3390
a(F3.0
g3
(g7
S'.D\xa8\xc5\x04\xca(A'
p3391
tp3392
Rp3393
g3237
F4.599946975708008
tp3394
a(F3.0
g3
(g7
S'\x8f\r\xff\xe6\x86\x08)A'
p3395
tp3396
Rp3397
g3237
F4.633368015289307
tp3398
a(F3.0
g3
(g7
S'>\x12\x86\xb8\xd6\x0f)A'
p3399
tp3400
Rp3401
g3237
F4.599747896194458
tp3402
a(F3.0
g3
(g7
S'\xd7\xc5\x98F\xc5\xff(A'
p3403
tp3404
Rp3405
g3237
F4.602129936218262
tp3406
a(F3.0
g3
(g7
S'\x82\xdak\x0c\x80\xbd(A'
p3407
tp3408
Rp3409
g3237
F4.599587917327881
tp3410
a(F4.0
g3
(g7
S'\xa7\x8cD\x88\x87C\x01A'
p3411
tp3412
Rp3413
g3237
F4.587362051010132
tp3414
a(F3.0
g3
(g7
S'\xaa\xf9\xa4\xc4\x14\xff(A'
p3415
tp3416
Rp3417
g3237
F4.573246002197266
tp3418
a(F3.0
g3
(g7
S'\x99\x9at\xa0}\xd6(A'
p3419
tp3420
Rp3421
g3237
F4.587238788604736
tp3422
a(F3.0
g3
(g7
S'\x0f \x1f\xccW\xa9(A'
p3423
tp3424
Rp3425
g3237
F4.58553409576416
tp3426
a(F4.0
g3
(g7
S'\xa9{\x8f\xb9\xf88"A'
p3427
tp3428
Rp3429
g3237
F4.588268995285034
tp3430
a(F34.0
g3
(g7
S'r\x8e\xd8\xdc\x00\xce\x0c@'
p3431
tp3432
Rp3433
g3237
F4.594351053237915
tp3434
a(F4.0
g3
(g7
S'<6k\xab\x8eK!A'
p3435
tp3436
Rp3437
g3237
F4.593338966369629
tp3438
a(F3.0
g3
(g7
S'\xa1\xe0{;\x10\xb5(A'
p3439
tp3440
Rp3441
g3237
F4.594238996505737
tp3442
a(F4.0
g3
(g7
S'\x96\xc5Hn\xe0#!A'
p3443
tp3444
Rp3445
g3237
F4.590859889984131
tp3446
a(F3.0
g3
(g7
S'\x7f\xf5\x16qI\xb6(A'
p3447
tp3448
Rp3449
g3237
F4.628453016281128
tp3450
a(F3.0
g3
(g7
S'\xa1\x9f\r\xe7.\x8f(A'
p3451
tp3452
Rp3453
g3237
F4.591141939163208
tp3454
a(F3.0
g3
(g7
S'\xfc!g\xc7\xe5\xde(A'
p3455
tp3456
Rp3457
g3237
F4.597848892211914
tp3458
a(F4.0
g3
(g7
S'\x00\x88\x15\xd7\t\xbd A'
p3459
tp3460
Rp3461
g3237
F4.590685129165649
tp3462
a(F3.0
g3
(g7
S'&\xe3\xdb2\xc9\n)A'
p3463
tp3464
Rp3465
g3237
F4.59135103225708
tp3466
a(F3.0
g3
(g7
S'\xcfx\x95\xc0\x0c\xff(A'
p3467
tp3468
Rp3469
g3237
F4.595787048339844
tp3470
a(F3.0
g3
(g7
S'\x81\xe5\xc9i1\xbf(A'
p3471
tp3472
Rp3473
g3237
F4.599881887435913
tp3474
a(F1165.0
g3
(g7
S'N\xa6\xa7\x98\xa7\x9a\xb2@'
p3475
tp3476
Rp3477
g3237
F4.593609809875488
tp3478
a(F8.0
g3
(g7
S'\xc2\xcf]Y}[\t@'
p3479
tp3480
Rp3481
g3237
F4.594372034072876
tp3482
a(F10.0
g3
(g7
S'\xf9\x1ajq\x1d\xde\x0c@'
p3483
tp3484
Rp3485
g3237
F4.596119165420532
tp3486
a(F3.0
g3
(g7
S' \x9eb\xf6qH(A'
p3487
tp3488
Rp3489
g3237
F4.597758054733276
tp3490
a(F3.0
g3
(g7
S'\xcaz!\xff\xc5\xe5(A'
p3491
tp3492
Rp3493
g3237
F4.600088834762573
tp3494
a(F3.0
g3
(g7
S'\x19\xf2x\x8e\x8a\xdf(A'
p3495
tp3496
Rp3497
g3237
F4.600231885910034
tp3498
a(F3.0
g3
(g7
S";4'm\xd9\xb2(A"
p3499
tp3500
Rp3501
g3237
F4.622565984725952
tp3502
a(F3.0
g3
(g7
S'\x11o\x02M\xff\xab(A'
p3503
tp3504
Rp3505
g3237
F4.598188161849976
tp3506
a(F5.0
g3
(g7
S'\xa7\x0f\x9c\xa4\x9a(\n@'
p3507
tp3508
Rp3509
g3237
F4.595027923583984
tp3510
a(F3.0
g3
(g7
S'\xbf\xc0Z\xef\r\x19)A'
p3511
tp3512
Rp3513
g3237
F4.590651035308838
tp3514
a(F3.0
g3
(g7
S'\xf4\xdf\xfa\xac\xbc\xff(A'
p3515
tp3516
Rp3517
g3237
F4.591775894165039
tp3518
a(F3.0
g3
(g7
S'}Z819\xcf(A'
p3519
tp3520
Rp3521
g3237
F4.59487509727478
tp3522
a(F3.0
g3
(g7
S'\xa4\xc8!Z\xcd\x13)A'
p3523
tp3524
Rp3525
g3237
F4.593395948410034
tp3526
a(F6.0
g3
(g7
S'm\x81j\xeb\xb9\xfd"@'
p3527
tp3528
Rp3529
g3237
F4.589193820953369
tp3530
a(F3.0
g3
(g7
S'\xbcv\xf7\x01\xb0\xa8(A'
p3531
tp3532
Rp3533
g3237
F4.5940399169921875
tp3534
a(F3.0
g3
(g7
S'\xdb\xc4}\x82\xee\x11)A'
p3535
tp3536
Rp3537
g3237
F4.607158899307251
tp3538
a(F3.0
g3
(g7
S';\xde\x91\xd7\xec )A'
p3539
tp3540
Rp3541
g3237
F4.60011100769043
tp3542
a(F3.0
g3
(g7
S'0Y\xb9R\x17\x1d)A'
p3543
tp3544
Rp3545
g3237
F4.598073959350586
tp3546
a(F3.0
g3
(g7
S"\x04L\x01'|\x83(A"
p3547
tp3548
Rp3549
g3237
F4.603034973144531
tp3550
a(F4.0
g3
(g7
S'\x1b\xd0Mb\xee)\x04A'
p3551
tp3552
Rp3553
g3237
F4.613927841186523
tp3554
a(F4.0
g3
(g7
S'[\x0fWF\xa3\xcb(A'
p3555
tp3556
Rp3557
g3237
F4.594513177871704
tp3558
a(F3.0
g3
(g7
S"\xb1?l\x17G\xc8'A"
p3559
tp3560
Rp3561
g3237
F4.595195055007935
tp3562
a(F6.0
g3
(g7
S't\xb6\x8c\x98,\xe52@'
p3563
tp3564
Rp3565
g3237
F4.594250917434692
tp3566
a(F4.0
g3
(g7
S'\x06v\xe88\xc2L$A'
p3567
tp3568
Rp3569
g3237
F4.596252918243408
tp3570
a(F5.0
g3
(g7
S'"R\xf6k\xfd\xe0\x0f@'
p3571
tp3572
Rp3573
g3237
F4.595647811889648
tp3574
a(F4.0
g3
(g7
S'\xf4\xe3q{\x11\xaca@'
p3575
tp3576
Rp3577
g3237
F4.594874143600464
tp3578
a(F3.0
g3
(g7
S'\xaa.D\x9f1\xc4(A'
p3579
tp3580
Rp3581
g3237
F4.601872205734253
tp3582
a(F3.0
g3
(g7
S',\n"\xde\xd7\x82(A'
p3583
tp3584
Rp3585
g3237
F4.592918872833252
tp3586
a(F3.0
g3
(g7
S'\xc2\x16\x9b\xb2\x97\x0f)A'
p3587
tp3588
Rp3589
g3237
F4.5736541748046875
tp3590
a(F3.0
g3
(g7
S'\x95\xe8~-\xfb\t)A'
p3591
tp3592
Rp3593
g3237
F4.5790040493011475
tp3594
a(F4.0
g3
(g7
S'\x10\x02\x1f\x89\x101\xe4@'
p3595
tp3596
Rp3597
g3237
F4.586755990982056
tp3598
a(F3.0
g3
(g7
S'O?\xdaa0\x08)A'
p3599
tp3600
Rp3601
g3237
F4.592052936553955
tp3602
a(F4.0
g3
(g7
S'\x1ea\x95\xcd\xa5\xd8#A'
p3603
tp3604
Rp3605
g3237
F4.618488073348999
tp3606
a(F3.0
g3
(g7
S'\xc8\t\x8b\x1f\x80\x9e(A'
p3607
tp3608
Rp3609
g3237
F4.5859270095825195
tp3610
a(F3.0
g3
(g7
S'\xa1%\xccU\x99\xd8(A'
p3611
tp3612
Rp3613
g3237
F4.587234020233154
tp3614
a(F3.0
g3
(g7
S'\x97(x\x04j!)A'
p3615
tp3616
Rp3617
g3237
F4.590674161911011
tp3618
a(F72.0
g3
(g7
S'T&"\xa0,/\x05A'
p3619
tp3620
Rp3621
g3237
F4.5902838706970215
tp3622
a(F5.0
g3
(g7
S'\xfc\x9ak\xe5\xc2\x8c\x19@'
p3623
tp3624
Rp3625
g3237
F4.588310956954956
tp3626
a(F6.0
g3
(g7
S'\xbd\xca\x8e\x1f\x05V\x9e@'
p3627
tp3628
Rp3629
g3237
F4.607363939285278
tp3630
a(F16.0
g3
(g7
S'D\xb4\xe25$\n\xb2@'
p3631
tp3632
Rp3633
g3237
F4.602729082107544
tp3634
aaF4.5
aI20
aF0.029340028762817383
aa(lp3635
(lp3636
(F35.0
g3
(g7
S'07 \xbc\xb0\x91\xf0?'
p3637
tp3638
Rp3639
(lp3640
F0.0
aF1000.0
aF2.276067018508911
tp3641
a(F160.0
g3
(g7
S'@\xde\xaa7\x85\x96\xef?'
p3642
tp3643
Rp3644
g3640
F2.2819180488586426
tp3645
a(F48.0
g3
(g7
S'\x80\xe8\xc9,\x8f\xb6\xee?'
p3646
tp3647
Rp3648
g3640
F2.2930591106414795
tp3649
a(F13.0
g3
(g7
S'\x18\x1d:\x12\x93j\xf2?'
p3650
tp3651
Rp3652
g3640
F2.290409803390503
tp3653
a(F26.0
g3
(g7
S'P\xfd\x1bd\xb1\xf9\xf3?'
p3654
tp3655
Rp3656
g3640
F2.2889628410339355
tp3657
a(F37.0
g3
(g7
S'\xe04\xe2\xbe_\xdf\xf4?'
p3658
tp3659
Rp3660
g3640
F2.2973721027374268
tp3661
a(F113.0
g3
(g7
S'\xb8?\x1a\xc9k\x03\xef?'
p3662
tp3663
Rp3664
g3640
F2.285443067550659
tp3665
a(F166.0
g3
(g7
S'\xa0\x04\x85Q\x0c\xaf\xee?'
p3666
tp3667
Rp3668
g3640
F2.2835168838500977
tp3669
a(F55.0
g3
(g7
S'|\x8enp\x912\xf1?'
p3670
tp3671
Rp3672
g3640
F2.2840089797973633
tp3673
a(F55.0
g3
(g7
S'\xe0\x85\x14\x1e3M\xee?'
p3674
tp3675
Rp3676
g3640
F2.2888541221618652
tp3677
a(F65.0
g3
(g7
S'\x9c\x11\xac\xbe\x89\xa2\xf0?'
p3678
tp3679
Rp3680
g3640
F2.2881340980529785
tp3681
a(F106.0
g3
(g7
S'\xd0\x0fWE\x8f*\xf0?'
p3682
tp3683
Rp3684
g3640
F2.288398027420044
tp3685
a(F46.0
g3
(g7
S'\xc0\xc4\xd9\x92\x1c)\xee?'
p3686
tp3687
Rp3688
g3640
F2.2699010372161865
tp3689
a(F10.0
g3
(g7
S'@\xb7\x04J\x98\xdb\xdd?'
p3690
tp3691
Rp3692
g3640
F2.2739038467407227
tp3693
a(F183.0
g3
(g7
S'`.\x84/\x95;\xef?'
p3694
tp3695
Rp3696
g3640
F2.270465850830078
tp3697
a(F37.0
g3
(g7
S'p\xe5\xe4\xea\xbb\xe6\xee?'
p3698
tp3699
Rp3700
g3640
F2.275196075439453
tp3701
a(F49.0
g3
(g7
S'\xd0\xeb\n\xcej_\xee?'
p3702
tp3703
Rp3704
g3640
F2.271692991256714
tp3705
a(F113.0
g3
(g7
S'\xc0\xf3r\xde\xcc@\xf0?'
p3706
tp3707
Rp3708
g3640
F2.2775778770446777
tp3709
a(F22.0
g3
(g7
S'\xa8[\xab;\xe4N\xf4?'
p3710
tp3711
Rp3712
g3640
F2.279228925704956
tp3713
a(F41.0
g3
(g7
S'P\xa0\xd0i\xc1\xd4\xf1?'
p3714
tp3715
Rp3716
g3640
F2.2668261528015137
tp3717
a(F73.0
g3
(g7
S'8+;\xf2\xf1+\xef?'
p3718
tp3719
Rp3720
g3640
F2.265439033508301
tp3721
a(F40.0
g3
(g7
S'\xb8\xae\xd5\x13\xb9B\xed?'
p3722
tp3723
Rp3724
g3640
F2.269883155822754
tp3725
a(F62.0
g3
(g7
S'D\xfe\xd7\xcf\x8d\xf3\xf1?'
p3726
tp3727
Rp3728
g3640
F2.2968709468841553
tp3729
a(F36.0
g3
(g7
S'\x00\xc5\n\x19<g\xf4?'
p3730
tp3731
Rp3732
g3640
F2.2774078845977783
tp3733
a(F93.0
g3
(g7
S'D\xe7\x173\x9f\\\xf0?'
p3734
tp3735
Rp3736
g3640
F2.2714450359344482
tp3737
a(F26.0
g3
(g7
S'\xc2!\x13^^2\x00@'
p3738
tp3739
Rp3740
g3640
F2.272057056427002
tp3741
a(F47.0
g3
(g7
S'\xbc^\x91\x13\xcf\x83\xf0?'
p3742
tp3743
Rp3744
g3640
F2.2759718894958496
tp3745
a(F61.0
g3
(g7
S'\x8c\xaaZ\x87C\xb5\xf1?'
p3746
tp3747
Rp3748
g3640
F2.2741429805755615
tp3749
a(F39.0
g3
(g7
S'\xb0\xffz\x08K\xc2\xee?'
p3750
tp3751
Rp3752
g3640
F2.2721610069274902
tp3753
a(F39.0
g3
(g7
S'\xe4\xd7\xae\x90m\xf8\xf1?'
p3754
tp3755
Rp3756
g3640
F2.2683770656585693
tp3757
a(F26.0
g3
(g7
S"\x00\xa3|\x11'\xb2\xf3?"
p3758
tp3759
Rp3760
g3640
F2.269089937210083
tp3761
a(F17.0
g3
(g7
S'\xd0%}\xbb.\x9a\xf2?'
p3762
tp3763
Rp3764
g3640
F2.2753469944000244
tp3765
a(F12.0
g3
(g7
S'\xc0\xd1\x975\xba\x19\xf3?'
p3766
tp3767
Rp3768
g3640
F2.2691221237182617
tp3769
a(F17.0
g3
(g7
S'pme\x1e\x88\x8a\xed?'
p3770
tp3771
Rp3772
g3640
F2.2682619094848633
tp3773
a(F27.0
g3
(g7
S'\\n\x18ha\r\xf4?'
p3774
tp3775
Rp3776
g3640
F2.269351005554199
tp3777
a(F14.0
g3
(g7
S'\xd8\xc2\xad#%\n\xf4?'
p3778
tp3779
Rp3780
g3640
F2.2719340324401855
tp3781
a(F25.0
g3
(g7
S'\x8c^r\x16C\xb5\xf1?'
p3782
tp3783
Rp3784
g3640
F2.2756309509277344
tp3785
a(F269.0
g3
(g7
S'(\xb4\xee\xba\xb10\xf0?'
p3786
tp3787
Rp3788
g3640
F2.3326969146728516
tp3789
a(F56.0
g3
(g7
S'`\x02\x8fAp\x13\xf2?'
p3790
tp3791
Rp3792
g3640
F2.2752480506896973
tp3793
a(F47.0
g3
(g7
S'\x80\x071\xc3\xc8\xa0\xef?'
p3794
tp3795
Rp3796
g3640
F2.2679598331451416
tp3797
a(F14.0
g3
(g7
S'`)\x87^\x06#\xf2?'
p3798
tp3799
Rp3800
g3640
F2.2527129650115967
tp3801
a(F39.0
g3
(g7
S'X\x0e2\x94\xabc\xf4?'
p3802
tp3803
Rp3804
g3640
F2.255481004714966
tp3805
a(F128.0
g3
(g7
S'\x00\xb4\x1e\n=5\xf0?'
p3806
tp3807
Rp3808
g3640
F2.259308099746704
tp3809
a(F54.0
g3
(g7
S'x<\x9c\xa6\xe1\x80\xf4?'
p3810
tp3811
Rp3812
g3640
F2.261897087097168
tp3813
a(F18.0
g3
(g7
S'p\x81Bp\xdf\x9e\xee?'
p3814
tp3815
Rp3816
g3640
F2.26151704788208
tp3817
a(F18.0
g3
(g7
S'\xf8X\xa8;\x83\x8e\xf3?'
p3818
tp3819
Rp3820
g3640
F2.2726471424102783
tp3821
a(F62.0
g3
(g7
S'd$\x06/MH\xf1?'
p3822
tp3823
Rp3824
g3640
F2.268009901046753
tp3825
a(F68.0
g3
(g7
S'(:\xda\x16G#\xef?'
p3826
tp3827
Rp3828
g3640
F2.2648589611053467
tp3829
a(F58.0
g3
(g7
S'p\x9bz\x12\x03E\xf0?'
p3830
tp3831
Rp3832
g3640
F2.268095016479492
tp3833
a(F30.0
g3
(g7
S'\x88\x18a\xf7"\x0b\xf5?'
p3834
tp3835
Rp3836
g3640
F2.267359972000122
tp3837
a(F60.0
g3
(g7
S'HD\x87\x0cE\xc6\xf0?'
p3838
tp3839
Rp3840
g3640
F2.2694530487060547
tp3841
a(F24.0
g3
(g7
S'H1\xe6 R\xc7\xf0?'
p3842
tp3843
Rp3844
g3640
F2.2683539390563965
tp3845
a(F28.0
g3
(g7
S'tw\x03<\xcaS\xf1?'
p3846
tp3847
Rp3848
g3640
F2.2691259384155273
tp3849
a(F105.0
g3
(g7
S',j0^\x8a^\xf0?'
p3850
tp3851
Rp3852
g3640
F2.270073175430298
tp3853
a(F54.0
g3
(g7
S'\xc0#\xd9\xfflf\xef?'
p3854
tp3855
Rp3856
g3640
F2.2660350799560547
tp3857
a(F85.0
g3
(g7
S'\x84\x9f\xb0v\xc8,\x00@'
p3858
tp3859
Rp3860
g3640
F2.268015146255493
tp3861
a(F429.0
g3
(g7
S'\x903\x01z\xa2\x95\xef?'
p3862
tp3863
Rp3864
g3640
F2.2667081356048584
tp3865
a(F156.0
g3
(g7
S'HP\x0b\xd8\x05-\xf0?'
p3866
tp3867
Rp3868
g3640
F2.2673749923706055
tp3869
a(F41.0
g3
(g7
S'\xe8\xbc\xa5\x8f\xafh\xf2?'
p3870
tp3871
Rp3872
g3640
F2.2707009315490723
tp3873
a(F45.0
g3
(g7
S'\\\xf4vY\xc7\x81\xf3?'
p3874
tp3875
Rp3876
g3640
F2.2709200382232666
tp3877
a(F37.0
g3
(g7
S'\xe0=\x0f\x9f\x95\xc0\xee?'
p3878
tp3879
Rp3880
g3640
F2.268929958343506
tp3881
a(F58.0
g3
(g7
S'\x98\xe28F&a\xef?'
p3882
tp3883
Rp3884
g3640
F2.2716400623321533
tp3885
a(F88.0
g3
(g7
S'\xf0\xb9\xf9\xf8\xf7\xb0\xee?'
p3886
tp3887
Rp3888
g3640
F2.2666008472442627
tp3889
a(F50.0
g3
(g7
S'd\xc61Sv\xc4\xf0?'
p3890
tp3891
Rp3892
g3640
F2.3125808238983154
tp3893
a(F41.0
g3
(g7
S'\xb8"\x9b\xb6-\xdc\xee?'
p3894
tp3895
Rp3896
g3640
F2.2691471576690674
tp3897
a(F134.0
g3
(g7
S'4UeZ\xde\xb3\xf0?'
p3898
tp3899
Rp3900
g3640
F2.267693042755127
tp3901
a(F36.0
g3
(g7
S'\x98\xf4\x8a\x89\x90\x0e\xff?'
p3902
tp3903
Rp3904
g3640
F2.27248477935791
tp3905
a(F119.0
g3
(g7
S'\x18\x91VR.G\xef?'
p3906
tp3907
Rp3908
g3640
F2.271785020828247
tp3909
a(F34.0
g3
(g7
S'd\t\x95k`\x85\xf0?'
p3910
tp3911
Rp3912
g3640
F2.2694010734558105
tp3913
a(F36.0
g3
(g7
S'\xe8\xcd\x83r\xc9\xa3\xf3?'
p3914
tp3915
Rp3916
g3640
F2.267616033554077
tp3917
a(F17.0
g3
(g7
S'x1\xd7^Hh\xf5?'
p3918
tp3919
Rp3920
g3640
F2.2692301273345947
tp3921
a(F26.0
g3
(g7
S'@\xfe\xcb\x11KP\xf1?'
p3922
tp3923
Rp3924
g3640
F2.2694530487060547
tp3925
a(F44.0
g3
(g7
S'p\x8a\xe8k\x88q\xf1?'
p3926
tp3927
Rp3928
g3640
F2.266601085662842
tp3929
a(F19.0
g3
(g7
S'\x88\x9e\xceP\xb51\xf4?'
p3930
tp3931
Rp3932
g3640
F2.2679789066314697
tp3933
a(F300.0
g3
(g7
S'\xac\xe3\x05\xc2\x8c.\xf0?'
p3934
tp3935
Rp3936
g3640
F2.264788866043091
tp3937
a(F40.0
g3
(g7
S'\xbc\xc8\xc7\x81u\xb5\xf0?'
p3938
tp3939
Rp3940
g3640
F2.2735910415649414
tp3941
a(F133.0
g3
(g7
S'x&\xf2Q\xa7\x9d\xee?'
p3942
tp3943
Rp3944
g3640
F2.264730930328369
tp3945
a(F82.0
g3
(g7
S'Hk\xea:}\xb3\xee?'
p3946
tp3947
Rp3948
g3640
F2.2716798782348633
tp3949
a(F29.0
g3
(g7
S'\x88%`7\x8e6\xf4?'
p3950
tp3951
Rp3952
g3640
F2.2738540172576904
tp3953
a(F16.0
g3
(g7
S'\xc0\xaa\xe5z`\x95\xf1?'
p3954
tp3955
Rp3956
g3640
F2.2705018520355225
tp3957
a(F248.0
g3
(g7
S'\x90t\xbb\xf8\x91\x81\xef?'
p3958
tp3959
Rp3960
g3640
F2.2702620029449463
tp3961
a(F35.0
g3
(g7
S'\x98\x98\xde\xfd\xd3#\xee?'
p3962
tp3963
Rp3964
g3640
F2.268183946609497
tp3965
a(F39.0
g3
(g7
S'\xc4\xf3nQ\xda[\xf0?'
p3966
tp3967
Rp3968
g3640
F2.272502899169922
tp3969
a(F89.0
g3
(g7
S'\x10\xda\xdc\x9b7\xa6\xee?'
p3970
tp3971
Rp3972
g3640
F2.2678258419036865
tp3973
a(F61.0
g3
(g7
S'\xd2\xd2\xd7\xfa\x0e\x13\x01@'
p3974
tp3975
Rp3976
g3640
F2.261401891708374
tp3977
a(F114.0
g3
(g7
S' \xc37\x11\xdbV\xef?'
p3978
tp3979
Rp3980
g3640
F2.26908802986145
tp3981
a(F43.0
g3
(g7
S'`7h\x89\xd8\x07\xf4?'
p3982
tp3983
Rp3984
g3640
F2.2639079093933105
tp3985
a(F60.0
g3
(g7
S'L\xc0\xe4\xc7\xcd\xad\xf1?'
p3986
tp3987
Rp3988
g3640
F2.271135091781616
tp3989
a(F47.0
g3
(g7
S'P\xfb"\xd1\xca4\xf1?'
p3990
tp3991
Rp3992
g3640
F2.266740083694458
tp3993
a(F71.0
g3
(g7
S'\x18\xdf\xfbxw\xa2\xf0?'
p3994
tp3995
Rp3996
g3640
F2.312896966934204
tp3997
a(F81.0
g3
(g7
S'\x10\xfc\x96\xec>S\xef?'
p3998
tp3999
Rp4000
g3640
F2.2687230110168457
tp4001
a(F26.0
g3
(g7
S'\x08\x07\x14V\x08\x93\xf3?'
p4002
tp4003
Rp4004
g3640
F2.2644059658050537
tp4005
a(F19.0
g3
(g7
S'0=\x1a\x8d`S\xf4?'
p4006
tp4007
Rp4008
g3640
F2.2709269523620605
tp4009
a(F33.0
g3
(g7
S',N\xf8\xec\xeb\xcb\xf0?'
p4010
tp4011
Rp4012
g3640
F2.268705129623413
tp4013
a(F20.0
g3
(g7
S'\x0c\t\x137\xbf\x84\xf1?'
p4014
tp4015
Rp4016
g3640
F2.26609206199646
tp4017
a(F25.0
g3
(g7
S'`rt/\xbf\xd3\xf4?'
p4018
tp4019
Rp4020
g3640
F2.2549190521240234
tp4021
a(F129.0
g3
(g7
S"\xb8'\xc5\xf0\xaam\xf0?"
p4022
tp4023
Rp4024
g3640
F2.2623448371887207
tp4025
a(F48.0
g3
(g7
S'\xc8]\xbf\xe3->\xf1?'
p4026
tp4027
Rp4028
g3640
F2.2531139850616455
tp4029
a(F83.0
g3
(g7
S'\xb8R\x03EK~\xef?'
p4030
tp4031
Rp4032
g3640
F2.2618210315704346
tp4033
a(F34.0
g3
(g7
S'\x18lHr9\x90\xf0?'
p4034
tp4035
Rp4036
g3640
F2.259114980697632
tp4037
aaF2.2
aI11
aF0.018683910369873047
aa(lp4038
(lp4039
(F2.0
g3
(g7
S'\xb4\x01\x1b\xe5d\xab\rB'
p4040
tp4041
Rp4042
(lp4043
F-17976931348.623158
aF17976931348.623158
aF3.813356876373291
tp4044
a(F2.0
g3
(g7
S'\xd4\xf4qc\xbe\xb3\rB'
p4045
tp4046
Rp4047
g4043
F3.802799940109253
tp4048
a(F2.0
g3
(g7
S'$\xb6\xe5J\xad\xb0\rB'
p4049
tp4050
Rp4051
g4043
F3.7956199645996094
tp4052
a(F2.0
g3
(g7
S'\xb4t\xc6\xf4\x0b\xb2\rB'
p4053
tp4054
Rp4055
g4043
F3.8038179874420166
tp4056
a(F2.0
g3
(g7
S'\xc4\x19\xa9\xacg\xab\rB'
p4057
tp4058
Rp4059
g4043
F3.7974250316619873
tp4060
a(F2.0
g3
(g7
S'\x04\x0c\xbc\xbc\xec\xaf\rB'
p4061
tp4062
Rp4063
g4043
F3.793376922607422
tp4064
a(F2.0
g3
(g7
S'd\xca\xc5\xa8\xf9\xa7\rB'
p4065
tp4066
Rp4067
g4043
F3.805589199066162
tp4068
a(F2.0
g3
(g7
S'\x8a\xa2\r9\xfc\xb3\rB'
p4069
tp4070
Rp4071
g4043
F3.806419849395752
tp4072
a(F2.0
g3
(g7
S'r\xad\xbc\xfd\x86\xb0\rB'
p4073
tp4074
Rp4075
g4043
F3.8051509857177734
tp4076
a(F2.0
g3
(g7
S'r\x17>p\xeb\xa0\rB'
p4077
tp4078
Rp4079
g4043
F3.8222479820251465
tp4080
a(F2.0
g3
(g7
S'4\x11\x81ex\xb2\rB'
p4081
tp4082
Rp4083
g4043
F3.8031179904937744
tp4084
a(F2.0
g3
(g7
S'D\xf6<\x0bI\xb4\rB'
p4085
tp4086
Rp4087
g4043
F3.813804864883423
tp4088
a(F2.0
g3
(g7
S'\xf4\x18`T=\xb2\rB'
p4089
tp4090
Rp4091
g4043
F3.800337076187134
tp4092
a(F2.0
g3
(g7
S'\x94/g\xc9\xa6\xb1\rB'
p4093
tp4094
Rp4095
g4043
F3.785921096801758
tp4096
a(F2.0
g3
(g7
S'4K\xdb\xf4\xdb\xb3\rB'
p4097
tp4098
Rp4099
g4043
F3.783358097076416
tp4100
a(F2.0
g3
(g7
S't\xf5\xcf\xfe\xe6\xa5\rB'
p4101
tp4102
Rp4103
g4043
F3.7824010848999023
tp4104
a(F2.0
g3
(g7
S'\x84\xf1N\xefr\xb2\rB'
p4105
tp4106
Rp4107
g4043
F3.7921040058135986
tp4108
a(F2.0
g3
(g7
S'J\xb8;=\xa4\xab\rB'
p4109
tp4110
Rp4111
g4043
F3.7838170528411865
tp4112
a(F2.0
g3
(g7
S'\xd4`\x84\x8b\xe6\xb2\rB'
p4113
tp4114
Rp4115
g4043
F3.791471004486084
tp4116
a(F2.0
g3
(g7
S'\x14\x86\xc8\xe0\xe5\xb3\rB'
p4117
tp4118
Rp4119
g4043
F3.7834761142730713
tp4120
a(F2.0
g3
(g7
S'\x04\xd8\xab\xf9D\xb3\rB'
p4121
tp4122
Rp4123
g4043
F3.7881808280944824
tp4124
a(F2.0
g3
(g7
S'\xf2\x9bX\xa04\xb3\rB'
p4125
tp4126
Rp4127
g4043
F3.7889609336853027
tp4128
a(F2.0
g3
(g7
S'\x12\xf1E4\xf0\xb2\rB'
p4129
tp4130
Rp4131
g4043
F3.789792060852051
tp4132
a(F2.0
g3
(g7
S'\xf2\x1d\xdb\xf5I\xac\rB'
p4133
tp4134
Rp4135
g4043
F3.7942819595336914
tp4136
a(F2.0
g3
(g7
S'$*\x83\x9f\xea\xac\rB'
p4137
tp4138
Rp4139
g4043
F3.8042478561401367
tp4140
a(F2.0
g3
(g7
S'\x8a\x02\xdc\xc2\xa4\xae\rB'
p4141
tp4142
Rp4143
g4043
F3.7881200313568115
tp4144
a(F2.0
g3
(g7
S'4\x90\xe0ID\xb4\rB'
p4145
tp4146
Rp4147
g4043
F3.7974660396575928
tp4148
a(F2.0
g3
(g7
S'\xc4\x08g<\x01\xb3\rB'
p4149
tp4150
Rp4151
g4043
F3.800542116165161
tp4152
a(F2.0
g3
(g7
S'\x94\xcao\xcb\xb0\xb4\rB'
p4153
tp4154
Rp4155
g4043
F3.795786142349243
tp4156
a(F2.0
g3
(g7
S'\x14\x1f!\x977\xb1\rB'
p4157
tp4158
Rp4159
g4043
F3.798280954360962
tp4160
a(F2.0
g3
(g7
S'\xf4\x864\xe1F\xa3\rB'
p4161
tp4162
Rp4163
g4043
F3.7899630069732666
tp4164
a(F2.0
g3
(g7
S'\xd4\xb7\x19\xda\x9f\xb1\rB'
p4165
tp4166
Rp4167
g4043
F3.777050018310547
tp4168
a(F2.0
g3
(g7
S'\xd4\x90\xc9\x9a\xb2\x94\rB'
p4169
tp4170
Rp4171
g4043
F3.7806990146636963
tp4172
a(F2.0
g3
(g7
S'\x14`\xda.\xda\xaf\rB'
p4173
tp4174
Rp4175
g4043
F3.784337043762207
tp4176
a(F2.0
g3
(g7
S'\xb2^\xe4\xe3"\xb2\rB'
p4177
tp4178
Rp4179
g4043
F3.777987003326416
tp4180
a(F2.0
g3
(g7
S'TQB\xb16\xb0\rB'
p4181
tp4182
Rp4183
g4043
F3.7827579975128174
tp4184
a(F2.0
g3
(g7
S'\n\x9a\xa5\xa9\xe3\x9f\rB'
p4185
tp4186
Rp4187
g4043
F3.779803991317749
tp4188
a(F2.0
g3
(g7
S't#\xe6y\x80\xb2\rB'
p4189
tp4190
Rp4191
g4043
F3.789167881011963
tp4192
a(F2.0
g3
(g7
S'\xb4\x81\x02!P\xb1\rB'
p4193
tp4194
Rp4195
g4043
F3.7905638217926025
tp4196
a(F2.0
g3
(g7
S'\xdad\x0e\x03\x7f\xb4\rB'
p4197
tp4198
Rp4199
g4043
F3.7921791076660156
tp4200
a(F2.0
g3
(g7
S'"Q\xdasx\xa9\rB'
p4201
tp4202
Rp4203
g4043
F3.8115339279174805
tp4204
a(F2.0
g3
(g7
S'4\xb3Oj\x9f\xb2\rB'
p4205
tp4206
Rp4207
g4043
F3.7943830490112305
tp4208
a(F2.0
g3
(g7
S'D\x07\xe8\xab\xa6\xb4\rB'
p4209
tp4210
Rp4211
g4043
F3.791975975036621
tp4212
a(F2.0
g3
(g7
S'\xf4\xb8\x17\xf7\xe0\xaf\rB'
p4213
tp4214
Rp4215
g4043
F3.791565179824829
tp4216
a(F2.0
g3
(g7
S'd\x18\xab\xe0w\xb4\rB'
p4217
tp4218
Rp4219
g4043
F3.785994052886963
tp4220
a(F2.0
g3
(g7
S'zAy\xf1\xfc\xae\rB'
p4221
tp4222
Rp4223
g4043
F3.793091058731079
tp4224
a(F2.0
g3
(g7
S'\x1a\x8f\x04F\xfa\xb2\rB'
p4225
tp4226
Rp4227
g4043
F3.788037061691284
tp4228
a(F2.0
g3
(g7
S'\x94r\x08c\x17\xa6\rB'
p4229
tp4230
Rp4231
g4043
F3.8006582260131836
tp4232
a(F2.0
g3
(g7
S'$\xa9\x10\x90\x1e\xad\rB'
p4233
tp4234
Rp4235
g4043
F3.7773869037628174
tp4236
a(F2.0
g3
(g7
S'\n\xe7\x93\xf2\xcb\xab\rB'
p4237
tp4238
Rp4239
g4043
F3.7801859378814697
tp4240
a(F2.0
g3
(g7
S'\xb4\xd5\xb7U\x92\x9b\rB'
p4241
tp4242
Rp4243
g4043
F3.7846601009368896
tp4244
a(F2.0
g3
(g7
S'\xe2\xf2\x1e\nU\xb2\rB'
p4245
tp4246
Rp4247
g4043
F3.7803051471710205
tp4248
a(F2.0
g3
(g7
S'\xfa\xe1E\xe3\xf2\xb3\rB'
p4249
tp4250
Rp4251
g4043
F3.77872896194458
tp4252
a(F2.0
g3
(g7
S'\xd4\xe8R-\x88\xb2\rB'
p4253
tp4254
Rp4255
g4043
F3.796660900115967
tp4256
a(F2.0
g3
(g7
S'\x1ajaD\xa5\xad\rB'
p4257
tp4258
Rp4259
g4043
F3.7808070182800293
tp4260
a(F2.0
g3
(g7
S'$I\\\\P\xa7\rB'
p4261
tp4262
Rp4263
g4043
F3.7926530838012695
tp4264
a(F2.0
g3
(g7
S't_\xb5\x08A\xac\rB'
p4265
tp4266
Rp4267
g4043
F3.809417963027954
tp4268
a(F2.0
g3
(g7
S'4\xc9\x8f\xb1>\x9f\rB'
p4269
tp4270
Rp4271
g4043
F3.792531967163086
tp4272
a(F2.0
g3
(g7
S'D\xaf$\x9c\x0e\xb2\rB'
p4273
tp4274
Rp4275
g4043
F3.796217918395996
tp4276
a(F2.0
g3
(g7
S'D8\xe2,\x1d\xad\rB'
p4277
tp4278
Rp4279
g4043
F3.7840158939361572
tp4280
a(F2.0
g3
(g7
S'\x02\\s(X\xaf\rB'
p4281
tp4282
Rp4283
g4043
F3.7866780757904053
tp4284
a(F2.0
g3
(g7
S'B]Y Q\xb4\rB'
p4285
tp4286
Rp4287
g4043
F3.781920909881592
tp4288
a(F2.0
g3
(g7
S':|\x1e\xfa\x13\xad\rB'
p4289
tp4290
Rp4291
g4043
F3.7876389026641846
tp4292
a(F2.0
g3
(g7
S'\x12W\x9c\xfc\xef\xad\rB'
p4293
tp4294
Rp4295
g4043
F3.795397996902466
tp4296
a(F2.0
g3
(g7
S'\xea\xf11\xe2\x16\xac\rB'
p4297
tp4298
Rp4299
g4043
F3.7802839279174805
tp4300
a(F2.0
g3
(g7
S'\xca\xa6\xa9\\\xf7\xaf\rB'
p4301
tp4302
Rp4303
g4043
F3.7820680141448975
tp4304
a(F2.0
g3
(g7
S'\xa4\xa6\x84\xe1\xc1\xb2\rB'
p4305
tp4306
Rp4307
g4043
F3.7836201190948486
tp4308
a(F2.0
g3
(g7
S'\x9anr\xb3U\xb0\rB'
p4309
tp4310
Rp4311
g4043
F3.779604911804199
tp4312
a(F2.0
g3
(g7
S'd\xae*`I\xb4\rB'
p4313
tp4314
Rp4315
g4043
F3.7830090522766113
tp4316
a(F2.0
g3
(g7
S'\xf4Y\x967\x06\xb1\rB'
p4317
tp4318
Rp4319
g4043
F3.7887449264526367
tp4320
a(F2.0
g3
(g7
S'\x04\xf3\xef5L\xaf\rB'
p4321
tp4322
Rp4323
g4043
F3.7826640605926514
tp4324
a(F2.0
g3
(g7
S'\x8ar\x97\x02\xf4\xa4\rB'
p4325
tp4326
Rp4327
g4043
F3.7916550636291504
tp4328
a(F2.0
g3
(g7
S'\x04_Q\xb7\xeb\xb1\rB'
p4329
tp4330
Rp4331
g4043
F3.8069868087768555
tp4332
a(F2.0
g3
(g7
S'\x94)8\x96o\xb0\rB'
p4333
tp4334
Rp4335
g4043
F3.7918100357055664
tp4336
a(F2.0
g3
(g7
S'\xda\xef\xda?&\xb3\rB'
p4337
tp4338
Rp4339
g4043
F3.7981648445129395
tp4340
a(F2.0
g3
(g7
S'B\xb7d\xc4\xeb\xb1\rB'
p4341
tp4342
Rp4343
g4043
F3.810451030731201
tp4344
a(F2.0
g3
(g7
S'b\xd1\xe2\xd1#\xae\rB'
p4345
tp4346
Rp4347
g4043
F3.8002560138702393
tp4348
a(F2.0
g3
(g7
S'\x94\xe5,\xd3\xf5\xaa\rB'
p4349
tp4350
Rp4351
g4043
F3.7930760383605957
tp4352
a(F2.0
g3
(g7
S't\xeeb\xbf\x08\xb2\rB'
p4353
tp4354
Rp4355
g4043
F3.791057825088501
tp4356
a(F2.0
g3
(g7
S'B\x86\xc6\xdd%\xb1\rB'
p4357
tp4358
Rp4359
g4043
F3.803307056427002
tp4360
a(F2.0
g3
(g7
S'T\x80S.\xb9\xb2\rB'
p4361
tp4362
Rp4363
g4043
F3.788846015930176
tp4364
a(F2.0
g3
(g7
S'\xa4\xa2m\xbcz\xad\rB'
p4365
tp4366
Rp4367
g4043
F3.790587902069092
tp4368
a(F2.0
g3
(g7
S'\x1a`FO\xe1\xab\rB'
p4369
tp4370
Rp4371
g4043
F3.7983741760253906
tp4372
a(F2.0
g3
(g7
S'\x84\x85\xa08v\xb4\rB'
p4373
tp4374
Rp4375
g4043
F3.781669855117798
tp4376
a(F2.0
g3
(g7
S'\x04\x0b9g\xff\xb3\rB'
p4377
tp4378
Rp4379
g4043
F3.7861690521240234
tp4380
a(F2.0
g3
(g7
S'\xa4\x82\xa0F\xa3\xac\rB'
p4381
tp4382
Rp4383
g4043
F3.778002977371216
tp4384
a(F2.0
g3
(g7
S'\xd4\xdf9\xc3\xee\xb3\rB'
p4385
tp4386
Rp4387
g4043
F3.7809269428253174
tp4388
a(F2.0
g3
(g7
S'\x14\xa9aI\x8b\xb2\rB'
p4389
tp4390
Rp4391
g4043
F3.788271903991699
tp4392
a(F2.0
g3
(g7
S'\xda\x96\xb0\xe5\xa5\xa7\rB'
p4393
tp4394
Rp4395
g4043
F3.815814971923828
tp4396
a(F2.0
g3
(g7
S'Z\x82\x90i\x01\xb3\rB'
p4397
tp4398
Rp4399
g4043
F3.7843639850616455
tp4400
a(F2.0
g3
(g7
S'\x92\x14Z\xa0\xac\xb3\rB'
p4401
tp4402
Rp4403
g4043
F3.795966148376465
tp4404
a(F2.0
g3
(g7
S'\xf2!\xe8\xd2\xcf\xab\rB'
p4405
tp4406
Rp4407
g4043
F3.791604995727539
tp4408
a(F2.0
g3
(g7
S'TYA\xcfA\xa7\rB'
p4409
tp4410
Rp4411
g4043
F3.7898848056793213
tp4412
a(F2.0
g3
(g7
S':\xb6@s\x1e\xaf\rB'
p4413
tp4414
Rp4415
g4043
F3.791024923324585
tp4416
a(F2.0
g3
(g7
S't\xf3\xf2X\xc0\xb4\rB'
p4417
tp4418
Rp4419
g4043
F3.801578998565674
tp4420
a(F2.0
g3
(g7
S'\xe4\xd3\xbe@g\xb4\rB'
p4421
tp4422
Rp4423
g4043
F3.7919089794158936
tp4424
a(F2.0
g3
(g7
S'\xbag\xf5\x94`\xb2\rB'
p4425
tp4426
Rp4427
g4043
F3.784306049346924
tp4428
a(F2.0
g3
(g7
S'\xe2V\x07ty\xaa\rB'
p4429
tp4430
Rp4431
g4043
F3.7828140258789062
tp4432
a(F2.0
g3
(g7
S'\xf4$\xb0\xe3\x8d\xaf\rB'
p4433
tp4434
Rp4435
g4043
F3.7965660095214844
tp4436
a(F2.0
g3
(g7
S'$#\xd1\x03G\xa6\rB'
p4437
tp4438
Rp4439
g4043
F3.792515993118286
tp4440
aaF5.5
aI72
aF0.0607609748840332
aa.