(lp0
(lp1
(lp2
(F708485683530085.0
cnumpy.core.multiarray
scalar
p3
(cnumpy
dtype
p4
(S'f8'
p5
I0
I1
tp6
Rp7
(I3
S'<'
p8
NNNI-1
I-1
I0
tp9
bS'm\x10\xb0\x83\xebw!\xc1'
p10
tp11
Rp12
(lp13
F-823549.6645
aI102
aF76.619558095932
tp14
a(F17706595566776.0
g3
(g7
S'T\x10(\xa2]$\x0c\xc1'
p15
tp16
Rp17
g13
F76.59108304977417
tp18
a(F10769264915986.0
g3
(g7
S'\x1a\xbc\x98l\xe3/\x1a\xc1'
p19
tp20
Rp21
g13
F76.5663549900055
tp22
a(F12061665031186.0
g3
(g7
S'\xa4LR\xd6d\x07%\xc1'
p23
tp24
Rp25
g13
F76.44762110710144
tp26
a(F54199509571769.0
g3
(g7
S'\xac\x8f\xbe\x13\xc1\x9f!\xc1'
p27
tp28
Rp29
g13
F76.29621982574463
tp30
a(F24213815517733.0
g3
(g7
S'\x10\\\x1e&\xb4c%\xc1'
p31
tp32
Rp33
g13
F76.39195895195007
tp34
a(F108929311187070.0
g3
(g7
S'\xac\xab\x8e\x83\xb4\xc6 \xc1'
p35
tp36
Rp37
g13
F76.44577121734619
tp38
a(F68344068228698.0
g3
(g7
S'n\xa2\xe4\x83\xe9\n(\xc1'
p39
tp40
Rp41
g13
F76.38709712028503
tp42
a(F21241180498335.0
g3
(g7
S'\xc21>0`\xbd$\xc1'
p43
tp44
Rp45
g13
F76.37632203102112
tp46
a(F6095725558897.0
g3
(g7
S'nq\x8b\xfaG\x04%\xc1'
p47
tp48
Rp49
g13
F76.46530294418335
tp50
a(F16056749716991.0
g3
(g7
S'6:\xdc\x16\xcaJ$\xc1'
p51
tp52
Rp53
g13
F76.4076759815216
tp54
a(F11786141144790.0
g3
(g7
S'Z\xfd\x13\\Z;&\xc1'
p55
tp56
Rp57
g13
F76.45376110076904
tp58
a(F131275591309840.0
g3
(g7
S'\xb4\xf3\x01\x18d\xa9\x0e\xc1'
p59
tp60
Rp61
g13
F76.42299222946167
tp62
a(F40368144055394.0
g3
(g7
S'\xac\x83\x06U?y\x17\xc1'
p63
tp64
Rp65
g13
F76.58873581886292
tp66
a(F8520532703200.0
g3
(g7
S"\x03\x1b\xefH\x1e\xd2'\xc1"
p67
tp68
Rp69
g13
F76.58015084266663
tp70
a(F7581629976809.0
g3
(g7
S'Y\x08\xe5\xa4`\xde\x18\xc1'
p71
tp72
Rp73
g13
F76.44951605796814
tp74
a(F10426861039506.0
g3
(g7
S'\x1a\xd9\xf0\x86\x99\x07 \xc1'
p75
tp76
Rp77
g13
F76.40827298164368
tp78
a(F19343875050739.0
g3
(g7
S'\x94\x85K\xa2\x1b*\x1c\xc1'
p79
tp80
Rp81
g13
F76.36697196960449
tp82
a(F106375717187812.0
g3
(g7
S'\x08\x03e4\x95.$\xc1'
p83
tp84
Rp85
g13
F76.38258290290833
tp86
a(F15112848622223.0
g3
(g7
S'\xbe\xd1=.\xfd\x87&\xc1'
p87
tp88
Rp89
g13
F76.36800193786621
tp90
a(F110064002213538.0
g3
(g7
S'\xfd\xe5\xd9\xe2\xcd\x9c\x17\xc1'
p91
tp92
Rp93
g13
F76.46472716331482
tp94
a(F15808728970872.0
g3
(g7
S'f\xdd}\xfe\xa4\xcc\x1a\xc1'
p95
tp96
Rp97
g13
F76.16345596313477
tp98
a(F76649846021712.0
g3
(g7
S'\xd2\x01\xdb\x12G\xe5&\xc1'
p99
tp100
Rp101
g13
F76.19279289245605
tp102
a(F10646619838499.0
g3
(g7
S'\x87\x85(M\x04\x10\x15\xc1'
p103
tp104
Rp105
g13
F76.2051191329956
tp106
a(F19790394108308.0
g3
(g7
S'\xc4\x8d\xbf\xf1\x89l\x00\xc1'
p107
tp108
Rp109
g13
F76.25117707252502
tp110
a(F28444609360387.0
g3
(g7
S'2\x8f\x96\xc8\x0e\xcd!\xc1'
p111
tp112
Rp113
g13
F76.17876720428467
tp114
a(F2390733027870.0
g3
(g7
S'\xaf0\x81\x1e\x01\xb9(\xc1'
p115
tp116
Rp117
g13
F76.17467284202576
tp118
a(F8241117707387.0
g3
(g7
S'\x1fR\xb6~P\xc7&\xc1'
p119
tp120
Rp121
g13
F76.2464988231659
tp122
a(F33682211451071.0
g3
(g7
S'\xb4IWh\xd6\xc6\x1f\xc1'
p123
tp124
Rp125
g13
F76.2284209728241
tp126
a(F102905908571766.0
g3
(g7
S'(\x87\xb0\xe2\xe7\xe2 \xc1'
p127
tp128
Rp129
g13
F76.15596103668213
tp130
a(F79041669529915.0
g3
(g7
S'X\x12y\x1a\x9f\x8a%\xc1'
p131
tp132
Rp133
g13
F76.17711997032166
tp134
a(F17040599280017.0
g3
(g7
S'4\xc9\xa1\xe0\x15\x89&\xc1'
p135
tp136
Rp137
g13
F76.13212990760803
tp138
a(F19753962944531.0
g3
(g7
S'\xbc\x05\x83W\x84\xa6 \xc1'
p139
tp140
Rp141
g13
F76.15207195281982
tp142
a(F72715827644850.0
g3
(g7
S'/z{4\xb6\xe1&\xc1'
p143
tp144
Rp145
g13
F76.22633790969849
tp146
a(F31288260671976.0
g3
(g7
S'\x99\x85Eq$k(\xc1'
p147
tp148
Rp149
g13
F76.19053196907043
tp150
a(F10443053006991.0
g3
(g7
S'6\xe82~\x1d\xf2&\xc1'
p151
tp152
Rp153
g13
F76.17422080039978
tp154
a(F27708713419760.0
g3
(g7
S'\xc8l\xe2\xad,\x9b#\xc1'
p155
tp156
Rp157
g13
F76.23125386238098
tp158
a(F17153160822863.0
g3
(g7
S'\x987a\xa3Zo&\xc1'
p159
tp160
Rp161
g13
F76.22327613830566
tp162
a(F5262373360033.0
g3
(g7
S'Bf\xf6\xc4@Z(\xc1'
p163
tp164
Rp165
g13
F76.2154471874237
tp166
a(F15473652249936.0
g3
(g7
S'\xda\xff\x86-\xa7\xcb\x1e\xc1'
p167
tp168
Rp169
g13
F76.1557400226593
tp170
a(F87350226409202.0
g3
(g7
S'\xfcF\x1d\x99Vw\x05\xc1'
p171
tp172
Rp173
g13
F76.32711601257324
tp174
a(F30552452398670.0
g3
(g7
S'\xfa\x9d\x8b9\x00o$\xc1'
p175
tp176
Rp177
g13
F76.4097101688385
tp178
a(F9391994696540.0
g3
(g7
S'\xbb\xc4\x07\x1b\x08\x8d%\xc1'
p179
tp180
Rp181
g13
F76.56972908973694
tp182
a(F89553105067526.0
g3
(g7
S'\xa3\x1e\xf2@\xfb\x1e)\xc1'
p183
tp184
Rp185
g13
F76.50594592094421
tp186
a(F18954093814284.0
g3
(g7
S'Y\xebfdc&\x1a\xc1'
p187
tp188
Rp189
g13
F76.46413707733154
tp190
a(F4968119494774.0
g3
(g7
S'&Y\xd5C\x83o&\xc1'
p191
tp192
Rp193
g13
F76.41326093673706
tp194
a(F193051478054634.0
g3
(g7
S'\xedm)\x016\xbc\x13\xc1'
p195
tp196
Rp197
g13
F76.43496203422546
tp198
a(F93867184749050.0
g3
(g7
S'\xae\x94\xb4N\xe8\xb2"\xc1'
p199
tp200
Rp201
g13
F76.14471292495728
tp202
a(F31280483962857.0
g3
(g7
S'\xf5\xb9\x82q{\xf7&\xc1'
p203
tp204
Rp205
g13
F76.1278190612793
tp206
a(F11235894981034.0
g3
(g7
S'\xcc~\x8c\xd25\xa4\x1c\xc1'
p207
tp208
Rp209
g13
F76.18773984909058
tp210
a(F314565079426641.0
g3
(g7
S'\xb4\xfa\xe3\x96\x13\x97(\xc1'
p211
tp212
Rp213
g13
F76.25136995315552
tp214
a(F55673493532954.0
g3
(g7
S'\x18(;\xbf\xe9\r!\xc1'
p215
tp216
Rp217
g13
F76.1592128276825
tp218
a(F13433735491525.0
g3
(g7
S'\x19\xd3\xc8\xa0\x8f\xcf%\xc1'
p219
tp220
Rp221
g13
F76.15543913841248
tp222
a(F7937005879142.0
g3
(g7
S'Z\xb4\xac\xe8@\xd8%\xc1'
p223
tp224
Rp225
g13
F76.18752813339233
tp226
a(F87936919140301.0
g3
(g7
S'\xb40\n\xa2\xa3p\x13\xc1'
p227
tp228
Rp229
g13
F76.14851307868958
tp230
a(F8842212404425.0
g3
(g7
S'\xf3\x15Yqp\xca\x18\xc1'
p231
tp232
Rp233
g13
F76.21669816970825
tp234
a(F86850583249634.0
g3
(g7
S"\xe2\xaen\x05Z\x05'\xc1"
p235
tp236
Rp237
g13
F76.18883204460144
tp238
a(F23595716146053.0
g3
(g7
S"\xa6A\x85d\xcfI'\xc1"
p239
tp240
Rp241
g13
F76.16730618476868
tp242
a(F112963140065456.0
g3
(g7
S'c\x01\xf7~N3%\xc1'
p243
tp244
Rp245
g13
F76.12137699127197
tp246
a(F6782731707452.0
g3
(g7
S'\xf8e\x85`q\xaa\n\xc1'
p247
tp248
Rp249
g13
F76.19859981536865
tp250
a(F34774890048462.0
g3
(g7
S'\x0ck\x81m h\x06\xc1'
p251
tp252
Rp253
g13
F76.27052998542786
tp254
a(F4284154331688.0
g3
(g7
S'\x84\x87\xc6\xb5\xa5\x86\x1c\xc1'
p255
tp256
Rp257
g13
F76.24338889122009
tp258
a(F6993728029149.0
g3
(g7
S'\x8dW\xa9\xc9\xaaP\x1f\xc1'
p259
tp260
Rp261
g13
F76.26601600646973
tp262
a(F96430604526424.0
g3
(g7
S'\xc6fH\xb2Z\xe6"\xc1'
p263
tp264
Rp265
g13
F76.19123411178589
tp266
a(F41299364376870.0
g3
(g7
S'\xb3\xaf\x15\tX\x10)\xc1'
p267
tp268
Rp269
g13
F76.2640209197998
tp270
a(F25027594141673.0
g3
(g7
S'g\xc9\x85\x81t\x12\x13\xc1'
p271
tp272
Rp273
g13
F76.17272710800171
tp274
a(F15404977531148.0
g3
(g7
S'\xdf\xbd\xbe`\x88\x1f"\xc1'
p275
tp276
Rp277
g13
F76.18545413017273
tp278
a(F3690006476661913.0
g3
(g7
S"*Y)'k\xa5#\xc1"
p279
tp280
Rp281
g13
F76.18455410003662
tp282
a(F70031353234582.0
g3
(g7
S'\x10\xdc\xcc\x9a\xa8\xd6\x1a\xc1'
p283
tp284
Rp285
g13
F76.32920289039612
tp286
a(F26833548924995.0
g3
(g7
S'\x83L\xee-`\xad"\xc1'
p287
tp288
Rp289
g13
F76.20884609222412
tp290
a(F36405313837252.0
g3
(g7
S"\xf5\xbf\x17\xa7\x14I'\xc1"
p291
tp292
Rp293
g13
F76.17663908004761
tp294
a(F7413192362626.0
g3
(g7
S'H\xf5\x0f\x9f\x0f\x1d(\xc1'
p295
tp296
Rp297
g13
F76.20948886871338
tp298
a(F40929508428730.0
g3
(g7
S'\xe3\xe8 \x07:\xb1%\xc1'
p299
tp300
Rp301
g13
F76.15403509140015
tp302
a(F460148919170109.0
g3
(g7
S'\xfc\xd5\xf6Y\x00\xb2"\xc1'
p303
tp304
Rp305
g13
F76.15851306915283
tp306
a(F371586766860948.0
g3
(g7
S"\r\x9bO\xb3\x98f'\xc1"
p307
tp308
Rp309
g13
F76.11812901496887
tp310
a(F45395347453427.0
g3
(g7
S'\xd8\xfa\xd2\xeb\x01\xcf\x1e\xc1'
p311
tp312
Rp313
g13
F76.17062520980835
tp314
a(F21961492906825.0
g3
(g7
S"%Ci\x1a\xe7#'\xc1"
p315
tp316
Rp317
g13
F76.11908292770386
tp318
a(F111708614838289.0
g3
(g7
S'\xe9[\xa6\xa2\x9a\xa4\x1a\xc1'
p319
tp320
Rp321
g13
F76.18215012550354
tp322
a(F92774680142577.0
g3
(g7
S'\xd8=uW\xd1\xb5 \xc1'
p323
tp324
Rp325
g13
F76.22605204582214
tp326
a(F134850779392498.0
g3
(g7
S"\xcb}x\x85)R'\xc1"
p327
tp328
Rp329
g13
F76.43062806129456
tp330
a(F5972034836499.0
g3
(g7
S'P\x82a\x0c\x92\x1a&\xc1'
p331
tp332
Rp333
g13
F76.7482328414917
tp334
a(F46303740711337.0
g3
(g7
S'\xf3\'}a\x8a\xed"\xc1'
p335
tp336
Rp337
g13
F76.82508897781372
tp338
a(F29966888949760.0
g3
(g7
S'\xaa5\xf1\xcc1\xb3"\xc1'
p339
tp340
Rp341
g13
F76.58948802947998
tp342
a(F4675701420093.0
g3
(g7
S'4\xfe\x8d.\x91\\\x1e\xc1'
p343
tp344
Rp345
g13
F76.23183798789978
tp346
a(F110960526177772.0
g3
(g7
S'L\x8d\xfc\xee\x95K$\xc1'
p347
tp348
Rp349
g13
F76.24532794952393
tp350
a(F14242645363189.0
g3
(g7
S'J/\xe8\xe1\x9d\xe3\x12\xc1'
p351
tp352
Rp353
g13
F76.16603088378906
tp354
a(F15090520483754.0
g3
(g7
S'1\x889\xb4M\xc9#\xc1'
p355
tp356
Rp357
g13
F76.18739604949951
tp358
a(F57976424734725.0
g3
(g7
S'\xcf\xba\xcaec2\x13\xc1'
p359
tp360
Rp361
g13
F76.12669897079468
tp362
a(F8857797974638.0
g3
(g7
S'\xd6\x9b3_\xdeE\x1e\xc1'
p363
tp364
Rp365
g13
F76.1245219707489
tp366
a(F465945348144232.0
g3
(g7
S'\xec\xf0\x90\xaa\xe1\xf7&\xc1'
p367
tp368
Rp369
g13
F76.1455647945404
tp370
a(F9143899508604.0
g3
(g7
S'Q\x07\x98\xe3\xf5\x83\x1d\xc1'
p371
tp372
Rp373
g13
F76.15561413764954
tp374
a(F65455069499705.0
g3
(g7
S'\xdcMo\xa9\xaav!\xc1'
p375
tp376
Rp377
g13
F76.15780401229858
tp378
a(F40493804506651.0
g3
(g7
S'B\x95\xd5\xbd,i(\xc1'
p379
tp380
Rp381
g13
F76.1537401676178
tp382
a(F127091271340211.0
g3
(g7
S'\xd4W\xda\xbb\x02\xb6&\xc1'
p383
tp384
Rp385
g13
F76.21683406829834
tp386
a(F7578879615663.0
g3
(g7
S'8\x7fC/+\xe4 \xc1'
p387
tp388
Rp389
g13
F76.12925386428833
tp390
a(F9846314969101.0
g3
(g7
S'I\x9dt\xe7:u$\xc1'
p391
tp392
Rp393
g13
F76.23042798042297
tp394
a(F27723904679148.0
g3
(g7
S'.\xfdD\xf0N\xdb \xc1'
p395
tp396
Rp397
g13
F76.27791500091553
tp398
a(F17497562039448.0
g3
(g7
S'\xde\xc4\xbf\xce;\x03(\xc1'
p399
tp400
Rp401
g13
F76.1907410621643
tp402
a(F6466707218004.0
g3
(g7
S'/\x84jr\xe2w%\xc1'
p403
tp404
Rp405
g13
F76.1935179233551
tp406
a(F107793807239226.0
g3
(g7
S'4u-\xc6\xfb\xab(\xc1'
p407
tp408
Rp409
g13
F76.21904397010803
tp410
aaI80
aI29
aF0.7776598930358887
aa(lp411
(lp412
(F9716.0
g3
(g7
S'T\xd5\xac\xc9\xed\x9a\x07B'
p413
tp414
Rp415
(lp416
F1.0
aF17000000000.0
aF117.02980899810791
tp417
a(F91944.0
g3
(g7
S'>\xd4\xa0\xdc\xeem\x07B'
p418
tp419
Rp420
g416
F116.1665050983429
tp421
a(F2416.0
g3
(g7
S'\xcd\xe9:<"+\xf7A'
p422
tp423
Rp424
g416
F116.14916181564331
tp425
a(F5409.0
g3
(g7
S'H\xa37\xe6y\\\xb9A'
p426
tp427
Rp428
g416
F116.35493016242981
tp429
a(F26877.0
g3
(g7
S'i\x9c\x9c4\xc8\x86\x01B'
p430
tp431
Rp432
g416
F117.23069882392883
tp433
a(F7325.0
g3
(g7
S'\xe8\x00\x1eR\x9e\x9a\xf2A'
p434
tp435
Rp436
g416
F117.218514919281
tp437
a(F19341.0
g3
(g7
S'X4\xc6\x9bfY\xe7A'
p438
tp439
Rp440
g416
F117.2375020980835
tp441
a(F5706.0
g3
(g7
S'\xbf\xae\x82\xe8\x18H\xf8A'
p442
tp443
Rp444
g416
F117.29875302314758
tp445
a(F338232.0
g3
(g7
S'\x9c\x9d\xf2u.\xd7\xebA'
p446
tp447
Rp448
g416
F117.29167103767395
tp449
a(F4851.0
g3
(g7
S'$\x18@\x06\x1ao\x0eB'
p450
tp451
Rp452
g416
F117.24277997016907
tp453
a(F5801.0
g3
(g7
S'7\xd7\xa8DX%\xf4A'
p454
tp455
Rp456
g416
F117.30028080940247
tp457
a(F1492.0
g3
(g7
S'\x8b\x81\x16\xbdz\t\nB'
p458
tp459
Rp460
g416
F116.9232611656189
tp461
a(F3871.0
g3
(g7
S'\x11R\x8f\x9f\xa0\x00\tB'
p462
tp463
Rp464
g416
F117.15676522254944
tp465
a(F8513.0
g3
(g7
S'2\xb6\x94X\xce\xd8\x06B'
p466
tp467
Rp468
g416
F117.1826069355011
tp469
a(F7307.0
g3
(g7
S'1\xea\xedj\xe0\xf2\xfaA'
p470
tp471
Rp472
g416
F117.1584050655365
tp473
a(F9178.0
g3
(g7
S'\x93UD\xc2l\x07\nB'
p474
tp475
Rp476
g416
F117.23225712776184
tp477
a(F3985.0
g3
(g7
S'\xef!\xcb/\xc6\xbb\xe9A'
p478
tp479
Rp480
g416
F117.25378608703613
tp481
a(F4741.0
g3
(g7
S'\x8by\x14g\xea6\xfeA'
p482
tp483
Rp484
g416
F117.19826006889343
tp485
a(F3938.0
g3
(g7
S'\xd8i\x8bT\x9b\x05\tB'
p486
tp487
Rp488
g416
F117.22144794464111
tp489
a(F4496.0
g3
(g7
S'\xeb\x83\xa2\x11\xcd\x9e\tB'
p490
tp491
Rp492
g416
F117.16232395172119
tp493
a(F11229.0
g3
(g7
S'T`cc\x1d4\xeaA'
p494
tp495
Rp496
g416
F117.0874400138855
tp497
a(F6934.0
g3
(g7
S'\xca:;\xc3\r\xdb\xf1A'
p498
tp499
Rp500
g416
F116.9603660106659
tp501
a(F7411.0
g3
(g7
S'$\xb3\xf1\xb8\xe7P\xe6A'
p502
tp503
Rp504
g416
F116.8775200843811
tp505
a(F2122.0
g3
(g7
S'\xa7\x03\x8f\x10:\x19\xf3A'
p506
tp507
Rp508
g416
F116.87578916549683
tp509
a(F8038.0
g3
(g7
S'\t|\x9f\x18S\xde\x03B'
p510
tp511
Rp512
g416
F116.74392986297607
tp513
a(F1587.0
g3
(g7
S'\xaf\xd1\xcduC\x93\xf1A'
p514
tp515
Rp516
g416
F116.08916306495667
tp517
a(F2208.0
g3
(g7
S'\xf6i\xe7\xb9\x8d\xcd\tB'
p518
tp519
Rp520
g416
F116.22306990623474
tp521
a(F11079.0
g3
(g7
S'\x1e\xf3\x17\xb7\x1d#\xf5A'
p522
tp523
Rp524
g416
F116.2825059890747
tp525
a(F5055.0
g3
(g7
S'b\xd9X\x1f6\x96\xfdA'
p526
tp527
Rp528
g416
F116.23547601699829
tp529
a(F45176.0
g3
(g7
S'\xf6\xb6\xef\x9d\xed\x1f\x08B'
p530
tp531
Rp532
g416
F116.24122595787048
tp533
a(F2558.0
g3
(g7
S'\xea\xad\xcb\xe6I\xd2\xf1A'
p534
tp535
Rp536
g416
F116.31587195396423
tp537
a(F31224.0
g3
(g7
S'\xc2\xac\xf0\xea\xd5\xb9\tB'
p538
tp539
Rp540
g416
F116.2677628993988
tp541
a(F1325.0
g3
(g7
S'\x87\xbd_9\x96\x97\x05B'
p542
tp543
Rp544
g416
F116.28973507881165
tp545
a(F3050.0
g3
(g7
S'\x18\xff\xfd\xffV\x1d\x04B'
p546
tp547
Rp548
g416
F116.2706298828125
tp549
a(F1578597.0
g3
(g7
S'\xc2\x9dbK\x0f#\x08B'
p550
tp551
Rp552
g416
F116.29781699180603
tp553
a(F52992.0
g3
(g7
S'I\xcc\xca\x0c\x9f\x99\xe9A'
p554
tp555
Rp556
g416
F116.31444001197815
tp557
a(F4359.0
g3
(g7
S'\xd0.\xd9\xe4\xed\xac\xf6A'
p558
tp559
Rp560
g416
F116.3342170715332
tp561
a(F3279.0
g3
(g7
S'\xb7\x9dl:\x04\x82\xfbA'
p562
tp563
Rp564
g416
F116.24857711791992
tp565
a(F195718.0
g3
(g7
S'\xc1"\x9fv\xd9\xe4\x07B'
p566
tp567
Rp568
g416
F116.19652605056763
tp569
a(F71065.0
g3
(g7
S'Y\xf8\xeeh\x01*\x00B'
p570
tp571
Rp572
g416
F116.27630805969238
tp573
a(F2110.0
g3
(g7
S'\xaf\xc2\x87\xb6\xc4\xf9\xaeA'
p574
tp575
Rp576
g416
F116.4161958694458
tp577
a(F1868.0
g3
(g7
S'\x10\x8b`\xc7\xd1Z\xf2A'
p578
tp579
Rp580
g416
F116.34120011329651
tp581
a(F25025.0
g3
(g7
S'\xe7\x18\xe7\x18\x15\xe7\xfeA'
p582
tp583
Rp584
g416
F116.36739921569824
tp585
a(F5859.0
g3
(g7
S'\x84\x81\xec\x83\xb9\xc7\xd7A'
p586
tp587
Rp588
g416
F116.38740611076355
tp589
a(F2103.0
g3
(g7
S'/%\x9e\xb3W\xb7\xe8A'
p590
tp591
Rp592
g416
F116.4490659236908
tp593
a(F3574.0
g3
(g7
S'\x869\x19\xbc=\x1d\x00B'
p594
tp595
Rp596
g416
F116.48843502998352
tp597
a(F2417.0
g3
(g7
S'\x94"|\xfbO\x15\x06B'
p598
tp599
Rp600
g416
F116.4597818851471
tp601
a(F10314.0
g3
(g7
S'Ak\xe2\x93\x1bD\x05B'
p602
tp603
Rp604
g416
F116.41024398803711
tp605
a(F1110.0
g3
(g7
S'\xa6\x03ay\x12\x96\xd5A'
p606
tp607
Rp608
g416
F116.36202502250671
tp609
a(F3458.0
g3
(g7
S':\xa1\xb9&[\xc8\x00B'
p610
tp611
Rp612
g416
F116.40316700935364
tp613
a(F3673.0
g3
(g7
S'}\xbc\xc2~\xb8\x1f\xa5A'
p614
tp615
Rp616
g416
F116.4520890712738
tp617
a(F5377.0
g3
(g7
S'q9\xbc\xe7\xdf\x93\x01B'
p618
tp619
Rp620
g416
F116.3969669342041
tp621
a(F2111.0
g3
(g7
S'\x80\x7f\xfa\x01\x01l\xe2A'
p622
tp623
Rp624
g416
F116.32766699790955
tp625
a(F122045.0
g3
(g7
S'0\xa1\x1bP\xd5\xc7\x08B'
p626
tp627
Rp628
g416
F116.52579188346863
tp629
a(F54478.0
g3
(g7
S'@=XUzl\xd3A'
p630
tp631
Rp632
g416
F116.35441994667053
tp633
a(F19739.0
g3
(g7
S'\x837\xf3\x95S\xe0\x03B'
p634
tp635
Rp636
g416
F116.33691596984863
tp637
a(F8951.0
g3
(g7
S'\x93\xde"\x95\x82J\xfaA'
p638
tp639
Rp640
g416
F116.30795288085938
tp641
a(F3747.0
g3
(g7
S'\x93%V\xd6\x1e\xef\xf1A'
p642
tp643
Rp644
g416
F116.40841603279114
tp645
a(F7557.0
g3
(g7
S'\x8e#"\xf0\x90\xa6\xf0A'
p646
tp647
Rp648
g416
F116.34851098060608
tp649
a(F48241.0
g3
(g7
S'.G\x9f/4?\nB'
p650
tp651
Rp652
g416
F116.37834215164185
tp653
a(F5998.0
g3
(g7
S'M:\xd1\xdb\xa6M\xfaA'
p654
tp655
Rp656
g416
F116.3692238330841
tp657
a(F14797.0
g3
(g7
S'=\xd4\xf5\xd54\n\x00B'
p658
tp659
Rp660
g416
F116.44108414649963
tp661
a(F2011.0
g3
(g7
S'\xeb\xf4!\xe9V\xe4\xe0A'
p662
tp663
Rp664
g416
F116.32038307189941
tp665
a(F20440.0
g3
(g7
S'I\x83PT\xb3P\xf2A'
p666
tp667
Rp668
g416
F116.33608484268188
tp669
a(F10399.0
g3
(g7
S'\nM\xdf\xba\x13\x8c\xffA'
p670
tp671
Rp672
g416
F116.12055802345276
tp673
a(F1104.0
g3
(g7
S'\x80Lh\xa3\xb9\xa0\x03B'
p674
tp675
Rp676
g416
F116.14690709114075
tp677
a(F3978.0
g3
(g7
S'\x97I(\\\xb4\xb7\x05B'
p678
tp679
Rp680
g416
F116.0710289478302
tp681
a(F1463.0
g3
(g7
S'\xdc\xb1\xffs\xe0\x96\xe2A'
p682
tp683
Rp684
g416
F116.11704301834106
tp685
a(F27424.0
g3
(g7
S'\xd6\x1c\xb4\xf7G\x81\xecA'
p686
tp687
Rp688
g416
F116.02714705467224
tp689
a(F2533.0
g3
(g7
S'\x18{\xc0\x1c\x85u\x0fB'
p690
tp691
Rp692
g416
F116.03953003883362
tp693
a(F1349.0
g3
(g7
S'*eX\x8c\xccV\xefA'
p694
tp695
Rp696
g416
F115.99766707420349
tp697
a(F1565.0
g3
(g7
S'\xe2\xe3m\x82\xafU\rB'
p698
tp699
Rp700
g416
F116.00079989433289
tp701
a(F1473.0
g3
(g7
S'\xee\xda<F\xe9\r\x03B'
p702
tp703
Rp704
g416
F116.00931000709534
tp705
a(F50565.0
g3
(g7
S'\x04\xd69\xed\x08\x13\xf0A'
p706
tp707
Rp708
g416
F116.04611086845398
tp709
a(F8425.0
g3
(g7
S'\xc3\xfcG\x93$<\xfcA'
p710
tp711
Rp712
g416
F115.97100496292114
tp713
a(F20952.0
g3
(g7
S'T\x9b\xbb\x8a\xb7\xee\xecA'
p714
tp715
Rp716
g416
F116.01766896247864
tp717
a(F4817.0
g3
(g7
S'w\xdf\xd4\xcb-\xde\xfdA'
p718
tp719
Rp720
g416
F115.97890210151672
tp721
a(F9291.0
g3
(g7
S'\xea,\xf5\xd4\x90F\xe1A'
p722
tp723
Rp724
g416
F116.13413095474243
tp725
a(F3726.0
g3
(g7
S'\tw+\xae\xdf\x19\x0fB'
p726
tp727
Rp728
g416
F116.11136603355408
tp729
a(F4470.0
g3
(g7
S'\x0e\x85\xf6\xb5\\i\xfeA'
p730
tp731
Rp732
g416
F115.97338700294495
tp733
a(F3930.0
g3
(g7
S'`\x86\xc6\xa9\xe43\rB'
p734
tp735
Rp736
g416
F116.01346492767334
tp737
a(F20744.0
g3
(g7
S'\xa9\xf3u\x9a\xee\xed\x02B'
p738
tp739
Rp740
g416
F115.97785997390747
tp741
a(F7410.0
g3
(g7
S' \x84\xb8f\x0f\xcb\xeaA'
p742
tp743
Rp744
g416
F115.9653971195221
tp745
a(F9986.0
g3
(g7
S'\r\x85\xab\x01\xc3<\rB'
p746
tp747
Rp748
g416
F116.05457401275635
tp749
a(F44298.0
g3
(g7
S'\x9d^:^\x8fN\x01B'
p750
tp751
Rp752
g416
F116.0404281616211
tp753
a(F56281.0
g3
(g7
S'\x802\x96#2M\xf5A'
p754
tp755
Rp756
g416
F116.24298691749573
tp757
a(F3463.0
g3
(g7
S'\xa7gJt\x97W\xecA'
p758
tp759
Rp760
g416
F116.5545551776886
tp761
a(F1642.0
g3
(g7
S'w+%\xb0\x1f\xab\xf1A'
p762
tp763
Rp764
g416
F116.60735511779785
tp765
a(F2984.0
g3
(g7
S'\x83\xe2@\xa4\xc1\x18\x05B'
p766
tp767
Rp768
g416
F116.63844990730286
tp769
a(F66932.0
g3
(g7
S'\x86Ws\xc8^Q\x0fB'
p770
tp771
Rp772
g416
F116.66885805130005
tp773
a(F37515.0
g3
(g7
S'Y\x8bX\x0f\xc6\xe6\xfbA'
p774
tp775
Rp776
g416
F116.52100205421448
tp777
a(F2894.0
g3
(g7
S'Q\xd3d\xe2\xa1\xe4\xd9A'
p778
tp779
Rp780
g416
F116.4171199798584
tp781
a(F4288.0
g3
(g7
S'\x1a@y=\xcd\xbf\xe3A'
p782
tp783
Rp784
g416
F116.46736192703247
tp785
a(F2926.0
g3
(g7
S'\xb1dd=!\x98\x01B'
p786
tp787
Rp788
g416
F116.36855697631836
tp789
a(F226460.0
g3
(g7
S'\xb0`\xcf\x8aj\xc5\xceA'
p790
tp791
Rp792
g416
F116.43592500686646
tp793
a(F1904.0
g3
(g7
S'95\xbf\x17\xce\xc4\tB'
p794
tp795
Rp796
g416
F116.41623711585999
tp797
a(F2660.0
g3
(g7
S'\xf2\xa5\xee\x0b__\tB'
p798
tp799
Rp800
g416
F116.53208899497986
tp801
a(F4926.0
g3
(g7
S')q\x8a\x02e\xfa\xc8A'
p802
tp803
Rp804
g416
F116.56701803207397
tp805
a(F1250.0
g3
(g7
S'\x1dK\xd2O\x17\xf7\xe0A'
p806
tp807
Rp808
g416
F116.51946306228638
tp809
a(F5357.0
g3
(g7
S'\xc8\x0e\x02_;N\x01B'
p810
tp811
Rp812
g416
F116.39267802238464
tp813
aaI120
aI34
aF1.574786901473999
aa.