(lp0
(lp1
(lp2
(F708485683530085.0
cnumpy.core.multiarray
scalar
p3
(cnumpy
dtype
p4
(S'f8'
p5
I0
I1
tp6
Rp7
(I3
S'<'
p8
NNNI-1
I-1
I0
tp9
bS'm\x10\xb0\x83\xebw!\xc1'
p10
tp11
Rp12
(lp13
F-823549.6645
aI102
aF76.619558095932
tp14
a(F17706595566776.0
g3
(g7
S'T\x10(\xa2]$\x0c\xc1'
p15
tp16
Rp17
g13
F76.59108304977417
tp18
a(F10769264915986.0
g3
(g7
S'\x1a\xbc\x98l\xe3/\x1a\xc1'
p19
tp20
Rp21
g13
F76.5663549900055
tp22
a(F12061665031186.0
g3
(g7
S'\xa4LR\xd6d\x07%\xc1'
p23
tp24
Rp25
g13
F76.44762110710144
tp26
a(F54199509571769.0
g3
(g7
S'\xac\x8f\xbe\x13\xc1\x9f!\xc1'
p27
tp28
Rp29
g13
F76.29621982574463
tp30
a(F24213815517733.0
g3
(g7
S'\x10\\\x1e&\xb4c%\xc1'
p31
tp32
Rp33
g13
F76.39195895195007
tp34
a(F108929311187070.0
g3
(g7
S'\xac\xab\x8e\x83\xb4\xc6 \xc1'
p35
tp36
Rp37
g13
F76.44577121734619
tp38
a(F68344068228698.0
g3
(g7
S'n\xa2\xe4\x83\xe9\n(\xc1'
p39
tp40
Rp41
g13
F76.38709712028503
tp42
a(F21241180498335.0
g3
(g7
S'\xc21>0`\xbd$\xc1'
p43
tp44
Rp45
g13
F76.37632203102112
tp46
a(F6095725558897.0
g3
(g7
S'nq\x8b\xfaG\x04%\xc1'
p47
tp48
Rp49
g13
F76.46530294418335
tp50
a(F16056749716991.0
g3
(g7
S'6:\xdc\x16\xcaJ$\xc1'
p51
tp52
Rp53
g13
F76.4076759815216
tp54
a(F11786141144790.0
g3
(g7
S'Z\xfd\x13\\Z;&\xc1'
p55
tp56
Rp57
g13
F76.45376110076904
tp58
a(F131275591309840.0
g3
(g7
S'\xb4\xf3\x01\x18d\xa9\x0e\xc1'
p59
tp60
Rp61
g13
F76.42299222946167
tp62
a(F40368144055394.0
g3
(g7
S'\xac\x83\x06U?y\x17\xc1'
p63
tp64
Rp65
g13
F76.58873581886292
tp66
a(F8520532703200.0
g3
(g7
S"\x03\x1b\xefH\x1e\xd2'\xc1"
p67
tp68
Rp69
g13
F76.58015084266663
tp70
a(F7581629976809.0
g3
(g7
S'Y\x08\xe5\xa4`\xde\x18\xc1'
p71
tp72
Rp73
g13
F76.44951605796814
tp74
a(F10426861039506.0
g3
(g7
S'\x1a\xd9\xf0\x86\x99\x07 \xc1'
p75
tp76
Rp77
g13
F76.40827298164368
tp78
a(F19343875050739.0
g3
(g7
S'\x94\x85K\xa2\x1b*\x1c\xc1'
p79
tp80
Rp81
g13
F76.36697196960449
tp82
a(F106375717187812.0
g3
(g7
S'\x08\x03e4\x95.$\xc1'
p83
tp84
Rp85
g13
F76.38258290290833
tp86
a(F15112848622223.0
g3
(g7
S'\xbe\xd1=.\xfd\x87&\xc1'
p87
tp88
Rp89
g13
F76.36800193786621
tp90
a(F110064002213538.0
g3
(g7
S'\xfd\xe5\xd9\xe2\xcd\x9c\x17\xc1'
p91
tp92
Rp93
g13
F76.46472716331482
tp94
a(F15808728970872.0
g3
(g7
S'f\xdd}\xfe\xa4\xcc\x1a\xc1'
p95
tp96
Rp97
g13
F76.16345596313477
tp98
a(F76649846021712.0
g3
(g7
S'\xd2\x01\xdb\x12G\xe5&\xc1'
p99
tp100
Rp101
g13
F76.19279289245605
tp102
a(F10646619838499.0
g3
(g7
S'\x87\x85(M\x04\x10\x15\xc1'
p103
tp104
Rp105
g13
F76.2051191329956
tp106
a(F19790394108308.0
g3
(g7
S'\xc4\x8d\xbf\xf1\x89l\x00\xc1'
p107
tp108
Rp109
g13
F76.25117707252502
tp110
a(F28444609360387.0
g3
(g7
S'2\x8f\x96\xc8\x0e\xcd!\xc1'
p111
tp112
Rp113
g13
F76.17876720428467
tp114
a(F2390733027870.0
g3
(g7
S'\xaf0\x81\x1e\x01\xb9(\xc1'
p115
tp116
Rp117
g13
F76.17467284202576
tp118
a(F8241117707387.0
g3
(g7
S'\x1fR\xb6~P\xc7&\xc1'
p119
tp120
Rp121
g13
F76.2464988231659
tp122
a(F33682211451071.0
g3
(g7
S'\xb4IWh\xd6\xc6\x1f\xc1'
p123
tp124
Rp125
g13
F76.2284209728241
tp126
a(F102905908571766.0
g3
(g7
S'(\x87\xb0\xe2\xe7\xe2 \xc1'
p127
tp128
Rp129
g13
F76.15596103668213
tp130
a(F79041669529915.0
g3
(g7
S'X\x12y\x1a\x9f\x8a%\xc1'
p131
tp132
Rp133
g13
F76.17711997032166
tp134
a(F17040599280017.0
g3
(g7
S'4\xc9\xa1\xe0\x15\x89&\xc1'
p135
tp136
Rp137
g13
F76.13212990760803
tp138
a(F19753962944531.0
g3
(g7
S'\xbc\x05\x83W\x84\xa6 \xc1'
p139
tp140
Rp141
g13
F76.15207195281982
tp142
a(F72715827644850.0
g3
(g7
S'/z{4\xb6\xe1&\xc1'
p143
tp144
Rp145
g13
F76.22633790969849
tp146
a(F31288260671976.0
g3
(g7
S'\x99\x85Eq$k(\xc1'
p147
tp148
Rp149
g13
F76.19053196907043
tp150
a(F10443053006991.0
g3
(g7
S'6\xe82~\x1d\xf2&\xc1'
p151
tp152
Rp153
g13
F76.17422080039978
tp154
a(F27708713419760.0
g3
(g7
S'\xc8l\xe2\xad,\x9b#\xc1'
p155
tp156
Rp157
g13
F76.23125386238098
tp158
a(F17153160822863.0
g3
(g7
S'\x987a\xa3Zo&\xc1'
p159
tp160
Rp161
g13
F76.22327613830566
tp162
a(F5262373360033.0
g3
(g7
S'Bf\xf6\xc4@Z(\xc1'
p163
tp164
Rp165
g13
F76.2154471874237
tp166
a(F15473652249936.0
g3
(g7
S'\xda\xff\x86-\xa7\xcb\x1e\xc1'
p167
tp168
Rp169
g13
F76.1557400226593
tp170
a(F87350226409202.0
g3
(g7
S'\xfcF\x1d\x99Vw\x05\xc1'
p171
tp172
Rp173
g13
F76.32711601257324
tp174
a(F30552452398670.0
g3
(g7
S'\xfa\x9d\x8b9\x00o$\xc1'
p175
tp176
Rp177
g13
F76.4097101688385
tp178
a(F9391994696540.0
g3
(g7
S'\xbb\xc4\x07\x1b\x08\x8d%\xc1'
p179
tp180
Rp181
g13
F76.56972908973694
tp182
a(F89553105067526.0
g3
(g7
S'\xa3\x1e\xf2@\xfb\x1e)\xc1'
p183
tp184
Rp185
g13
F76.50594592094421
tp186
a(F18954093814284.0
g3
(g7
S'Y\xebfdc&\x1a\xc1'
p187
tp188
Rp189
g13
F76.46413707733154
tp190
a(F4968119494774.0
g3
(g7
S'&Y\xd5C\x83o&\xc1'
p191
tp192
Rp193
g13
F76.41326093673706
tp194
a(F193051478054634.0
g3
(g7
S'\xedm)\x016\xbc\x13\xc1'
p195
tp196
Rp197
g13
F76.43496203422546
tp198
a(F93867184749050.0
g3
(g7
S'\xae\x94\xb4N\xe8\xb2"\xc1'
p199
tp200
Rp201
g13
F76.14471292495728
tp202
a(F31280483962857.0
g3
(g7
S'\xf5\xb9\x82q{\xf7&\xc1'
p203
tp204
Rp205
g13
F76.1278190612793
tp206
a(F11235894981034.0
g3
(g7
S'\xcc~\x8c\xd25\xa4\x1c\xc1'
p207
tp208
Rp209
g13
F76.18773984909058
tp210
a(F314565079426641.0
g3
(g7
S'\xb4\xfa\xe3\x96\x13\x97(\xc1'
p211
tp212
Rp213
g13
F76.25136995315552
tp214
a(F55673493532954.0
g3
(g7
S'\x18(;\xbf\xe9\r!\xc1'
p215
tp216
Rp217
g13
F76.1592128276825
tp218
a(F13433735491525.0
g3
(g7
S'\x19\xd3\xc8\xa0\x8f\xcf%\xc1'
p219
tp220
Rp221
g13
F76.15543913841248
tp222
a(F7937005879142.0
g3
(g7
S'Z\xb4\xac\xe8@\xd8%\xc1'
p223
tp224
Rp225
g13
F76.18752813339233
tp226
a(F87936919140301.0
g3
(g7
S'\xb40\n\xa2\xa3p\x13\xc1'
p227
tp228
Rp229
g13
F76.14851307868958
tp230
a(F8842212404425.0
g3
(g7
S'\xf3\x15Yqp\xca\x18\xc1'
p231
tp232
Rp233
g13
F76.21669816970825
tp234
a(F86850583249634.0
g3
(g7
S"\xe2\xaen\x05Z\x05'\xc1"
p235
tp236
Rp237
g13
F76.18883204460144
tp238
a(F23595716146053.0
g3
(g7
S"\xa6A\x85d\xcfI'\xc1"
p239
tp240
Rp241
g13
F76.16730618476868
tp242
a(F112963140065456.0
g3
(g7
S'c\x01\xf7~N3%\xc1'
p243
tp244
Rp245
g13
F76.12137699127197
tp246
a(F6782731707452.0
g3
(g7
S'\xf8e\x85`q\xaa\n\xc1'
p247
tp248
Rp249
g13
F76.19859981536865
tp250
a(F34774890048462.0
g3
(g7
S'\x0ck\x81m h\x06\xc1'
p251
tp252
Rp253
g13
F76.27052998542786
tp254
a(F4284154331688.0
g3
(g7
S'\x84\x87\xc6\xb5\xa5\x86\x1c\xc1'
p255
tp256
Rp257
g13
F76.24338889122009
tp258
a(F6993728029149.0
g3
(g7
S'\x8dW\xa9\xc9\xaaP\x1f\xc1'
p259
tp260
Rp261
g13
F76.26601600646973
tp262
a(F96430604526424.0
g3
(g7
S'\xc6fH\xb2Z\xe6"\xc1'
p263
tp264
Rp265
g13
F76.19123411178589
tp266
a(F41299364376870.0
g3
(g7
S'\xb3\xaf\x15\tX\x10)\xc1'
p267
tp268
Rp269
g13
F76.2640209197998
tp270
a(F25027594141673.0
g3
(g7
S'g\xc9\x85\x81t\x12\x13\xc1'
p271
tp272
Rp273
g13
F76.17272710800171
tp274
a(F15404977531148.0
g3
(g7
S'\xdf\xbd\xbe`\x88\x1f"\xc1'
p275
tp276
Rp277
g13
F76.18545413017273
tp278
a(F3690006476661913.0
g3
(g7
S"*Y)'k\xa5#\xc1"
p279
tp280
Rp281
g13
F76.18455410003662
tp282
a(F70031353234582.0
g3
(g7
S'\x10\xdc\xcc\x9a\xa8\xd6\x1a\xc1'
p283
tp284
Rp285
g13
F76.32920289039612
tp286
a(F26833548924995.0
g3
(g7
S'\x83L\xee-`\xad"\xc1'
p287
tp288
Rp289
g13
F76.20884609222412
tp290
a(F36405313837252.0
g3
(g7
S"\xf5\xbf\x17\xa7\x14I'\xc1"
p291
tp292
Rp293
g13
F76.17663908004761
tp294
a(F7413192362626.0
g3
(g7
S'H\xf5\x0f\x9f\x0f\x1d(\xc1'
p295
tp296
Rp297
g13
F76.20948886871338
tp298
a(F40929508428730.0
g3
(g7
S'\xe3\xe8 \x07:\xb1%\xc1'
p299
tp300
Rp301
g13
F76.15403509140015
tp302
a(F460148919170109.0
g3
(g7
S'\xfc\xd5\xf6Y\x00\xb2"\xc1'
p303
tp304
Rp305
g13
F76.15851306915283
tp306
a(F371586766860948.0
g3
(g7
S"\r\x9bO\xb3\x98f'\xc1"
p307
tp308
Rp309
g13
F76.11812901496887
tp310
a(F45395347453427.0
g3
(g7
S'\xd8\xfa\xd2\xeb\x01\xcf\x1e\xc1'
p311
tp312
Rp313
g13
F76.17062520980835
tp314
a(F21961492906825.0
g3
(g7
S"%Ci\x1a\xe7#'\xc1"
p315
tp316
Rp317
g13
F76.11908292770386
tp318
a(F111708614838289.0
g3
(g7
S'\xe9[\xa6\xa2\x9a\xa4\x1a\xc1'
p319
tp320
Rp321
g13
F76.18215012550354
tp322
a(F92774680142577.0
g3
(g7
S'\xd8=uW\xd1\xb5 \xc1'
p323
tp324
Rp325
g13
F76.22605204582214
tp326
a(F134850779392498.0
g3
(g7
S"\xcb}x\x85)R'\xc1"
p327
tp328
Rp329
g13
F76.43062806129456
tp330
a(F5972034836499.0
g3
(g7
S'P\x82a\x0c\x92\x1a&\xc1'
p331
tp332
Rp333
g13
F76.7482328414917
tp334
a(F46303740711337.0
g3
(g7
S'\xf3\'}a\x8a\xed"\xc1'
p335
tp336
Rp337
g13
F76.82508897781372
tp338
a(F29966888949760.0
g3
(g7
S'\xaa5\xf1\xcc1\xb3"\xc1'
p339
tp340
Rp341
g13
F76.58948802947998
tp342
a(F4675701420093.0
g3
(g7
S'4\xfe\x8d.\x91\\\x1e\xc1'
p343
tp344
Rp345
g13
F76.23183798789978
tp346
a(F110960526177772.0
g3
(g7
S'L\x8d\xfc\xee\x95K$\xc1'
p347
tp348
Rp349
g13
F76.24532794952393
tp350
a(F14242645363189.0
g3
(g7
S'J/\xe8\xe1\x9d\xe3\x12\xc1'
p351
tp352
Rp353
g13
F76.16603088378906
tp354
a(F15090520483754.0
g3
(g7
S'1\x889\xb4M\xc9#\xc1'
p355
tp356
Rp357
g13
F76.18739604949951
tp358
a(F57976424734725.0
g3
(g7
S'\xcf\xba\xcaec2\x13\xc1'
p359
tp360
Rp361
g13
F76.12669897079468
tp362
a(F8857797974638.0
g3
(g7
S'\xd6\x9b3_\xdeE\x1e\xc1'
p363
tp364
Rp365
g13
F76.1245219707489
tp366
a(F465945348144232.0
g3
(g7
S'\xec\xf0\x90\xaa\xe1\xf7&\xc1'
p367
tp368
Rp369
g13
F76.1455647945404
tp370
a(F9143899508604.0
g3
(g7
S'Q\x07\x98\xe3\xf5\x83\x1d\xc1'
p371
tp372
Rp373
g13
F76.15561413764954
tp374
a(F65455069499705.0
g3
(g7
S'\xdcMo\xa9\xaav!\xc1'
p375
tp376
Rp377
g13
F76.15780401229858
tp378
a(F40493804506651.0
g3
(g7
S'B\x95\xd5\xbd,i(\xc1'
p379
tp380
Rp381
g13
F76.1537401676178
tp382
a(F127091271340211.0
g3
(g7
S'\xd4W\xda\xbb\x02\xb6&\xc1'
p383
tp384
Rp385
g13
F76.21683406829834
tp386
a(F7578879615663.0
g3
(g7
S'8\x7fC/+\xe4 \xc1'
p387
tp388
Rp389
g13
F76.12925386428833
tp390
a(F9846314969101.0
g3
(g7
S'I\x9dt\xe7:u$\xc1'
p391
tp392
Rp393
g13
F76.23042798042297
tp394
a(F27723904679148.0
g3
(g7
S'.\xfdD\xf0N\xdb \xc1'
p395
tp396
Rp397
g13
F76.27791500091553
tp398
a(F17497562039448.0
g3
(g7
S'\xde\xc4\xbf\xce;\x03(\xc1'
p399
tp400
Rp401
g13
F76.1907410621643
tp402
a(F6466707218004.0
g3
(g7
S'/\x84jr\xe2w%\xc1'
p403
tp404
Rp405
g13
F76.1935179233551
tp406
a(F107793807239226.0
g3
(g7
S'4u-\xc6\xfb\xab(\xc1'
p407
tp408
Rp409
g13
F76.21904397010803
tp410
aaI80
aI29
aF0.7776598930358887
aa(lp411
(lp412
(F9716.0
g3
(g7
S'T\xd5\xac\xc9\xed\x9a\x07B'
p413
tp414
Rp415
(lp416
F1.0
aF17000000000.0
aF117.02980899810791
tp417
a(F91944.0
g3
(g7
S'>\xd4\xa0\xdc\xeem\x07B'
p418
tp419
Rp420
g416
F116.1665050983429
tp421
a(F2416.0
g3
(g7
S'\xcd\xe9:<"+\xf7A'
p422
tp423
Rp424
g416
F116.14916181564331
tp425
a(F5409.0
g3
(g7
S'H\xa37\xe6y\\\xb9A'
p426
tp427
Rp428
g416
F116.35493016242981
tp429
a(F26877.0
g3
(g7
S'i\x9c\x9c4\xc8\x86\x01B'
p430
tp431
Rp432
g416
F117.23069882392883
tp433
a(F7325.0
g3
(g7
S'\xe8\x00\x1eR\x9e\x9a\xf2A'
p434
tp435
Rp436
g416
F117.218514919281
tp437
a(F19341.0
g3
(g7
S'X4\xc6\x9bfY\xe7A'
p438
tp439
Rp440
g416
F117.2375020980835
tp441
a(F5706.0
g3
(g7
S'\xbf\xae\x82\xe8\x18H\xf8A'
p442
tp443
Rp444
g416
F117.29875302314758
tp445
a(F338232.0
g3
(g7
S'\x9c\x9d\xf2u.\xd7\xebA'
p446
tp447
Rp448
g416
F117.29167103767395
tp449
a(F4851.0
g3
(g7
S'$\x18@\x06\x1ao\x0eB'
p450
tp451
Rp452
g416
F117.24277997016907
tp453
a(F5801.0
g3
(g7
S'7\xd7\xa8DX%\xf4A'
p454
tp455
Rp456
g416
F117.30028080940247
tp457
a(F1492.0
g3
(g7
S'\x8b\x81\x16\xbdz\t\nB'
p458
tp459
Rp460
g416
F116.9232611656189
tp461
a(F3871.0
g3
(g7
S'\x11R\x8f\x9f\xa0\x00\tB'
p462
tp463
Rp464
g416
F117.15676522254944
tp465
a(F8513.0
g3
(g7
S'2\xb6\x94X\xce\xd8\x06B'
p466
tp467
Rp468
g416
F117.1826069355011
tp469
a(F7307.0
g3
(g7
S'1\xea\xedj\xe0\xf2\xfaA'
p470
tp471
Rp472
g416
F117.1584050655365
tp473
a(F9178.0
g3
(g7
S'\x93UD\xc2l\x07\nB'
p474
tp475
Rp476
g416
F117.23225712776184
tp477
a(F3985.0
g3
(g7
S'\xef!\xcb/\xc6\xbb\xe9A'
p478
tp479
Rp480
g416
F117.25378608703613
tp481
a(F4741.0
g3
(g7
S'\x8by\x14g\xea6\xfeA'
p482
tp483
Rp484
g416
F117.19826006889343
tp485
a(F3938.0
g3
(g7
S'\xd8i\x8bT\x9b\x05\tB'
p486
tp487
Rp488
g416
F117.22144794464111
tp489
a(F4496.0
g3
(g7
S'\xeb\x83\xa2\x11\xcd\x9e\tB'
p490
tp491
Rp492
g416
F117.16232395172119
tp493
a(F11229.0
g3
(g7
S'T`cc\x1d4\xeaA'
p494
tp495
Rp496
g416
F117.0874400138855
tp497
a(F6934.0
g3
(g7
S'\xca:;\xc3\r\xdb\xf1A'
p498
tp499
Rp500
g416
F116.9603660106659
tp501
a(F7411.0
g3
(g7
S'$\xb3\xf1\xb8\xe7P\xe6A'
p502
tp503
Rp504
g416
F116.8775200843811
tp505
a(F2122.0
g3
(g7
S'\xa7\x03\x8f\x10:\x19\xf3A'
p506
tp507
Rp508
g416
F116.87578916549683
tp509
a(F8038.0
g3
(g7
S'\t|\x9f\x18S\xde\x03B'
p510
tp511
Rp512
g416
F116.74392986297607
tp513
a(F1587.0
g3
(g7
S'\xaf\xd1\xcduC\x93\xf1A'
p514
tp515
Rp516
g416
F116.08916306495667
tp517
a(F2208.0
g3
(g7
S'\xf6i\xe7\xb9\x8d\xcd\tB'
p518
tp519
Rp520
g416
F116.22306990623474
tp521
a(F11079.0
g3
(g7
S'\x1e\xf3\x17\xb7\x1d#\xf5A'
p522
tp523
Rp524
g416
F116.2825059890747
tp525
a(F5055.0
g3
(g7
S'b\xd9X\x1f6\x96\xfdA'
p526
tp527
Rp528
g416
F116.23547601699829
tp529
a(F45176.0
g3
(g7
S'\xf6\xb6\xef\x9d\xed\x1f\x08B'
p530
tp531
Rp532
g416
F116.24122595787048
tp533
a(F2558.0
g3
(g7
S'\xea\xad\xcb\xe6I\xd2\xf1A'
p534
tp535
Rp536
g416
F116.31587195396423
tp537
a(F31224.0
g3
(g7
S'\xc2\xac\xf0\xea\xd5\xb9\tB'
p538
tp539
Rp540
g416
F116.2677628993988
tp541
a(F1325.0
g3
(g7
S'\x87\xbd_9\x96\x97\x05B'
p542
tp543
Rp544
g416
F116.28973507881165
tp545
a(F3050.0
g3
(g7
S'\x18\xff\xfd\xffV\x1d\x04B'
p546
tp547
Rp548
g416
F116.2706298828125
tp549
a(F1578597.0
g3
(g7
S'\xc2\x9dbK\x0f#\x08B'
p550
tp551
Rp552
g416
F116.29781699180603
tp553
a(F52992.0
g3
(g7
S'I\xcc\xca\x0c\x9f\x99\xe9A'
p554
tp555
Rp556
g416
F116.31444001197815
tp557
a(F4359.0
g3
(g7
S'\xd0.\xd9\xe4\xed\xac\xf6A'
p558
tp559
Rp560
g416
F116.3342170715332
tp561
a(F3279.0
g3
(g7
S'\xb7\x9dl:\x04\x82\xfbA'
p562
tp563
Rp564
g416
F116.24857711791992
tp565
a(F195718.0
g3
(g7
S'\xc1"\x9fv\xd9\xe4\x07B'
p566
tp567
Rp568
g416
F116.19652605056763
tp569
a(F71065.0
g3
(g7
S'Y\xf8\xeeh\x01*\x00B'
p570
tp571
Rp572
g416
F116.27630805969238
tp573
a(F2110.0
g3
(g7
S'\xaf\xc2\x87\xb6\xc4\xf9\xaeA'
p574
tp575
Rp576
g416
F116.4161958694458
tp577
a(F1868.0
g3
(g7
S'\x10\x8b`\xc7\xd1Z\xf2A'
p578
tp579
Rp580
g416
F116.34120011329651
tp581
a(F25025.0
g3
(g7
S'\xe7\x18\xe7\x18\x15\xe7\xfeA'
p582
tp583
Rp584
g416
F116.36739921569824
tp585
a(F5859.0
g3
(g7
S'\x84\x81\xec\x83\xb9\xc7\xd7A'
p586
tp587
Rp588
g416
F116.38740611076355
tp589
a(F2103.0
g3
(g7
S'/%\x9e\xb3W\xb7\xe8A'
p590
tp591
Rp592
g416
F116.4490659236908
tp593
a(F3574.0
g3
(g7
S'\x869\x19\xbc=\x1d\x00B'
p594
tp595
Rp596
g416
F116.48843502998352
tp597
a(F2417.0
g3
(g7
S'\x94"|\xfbO\x15\x06B'
p598
tp599
Rp600
g416
F116.4597818851471
tp601
a(F10314.0
g3
(g7
S'Ak\xe2\x93\x1bD\x05B'
p602
tp603
Rp604
g416
F116.41024398803711
tp605
a(F1110.0
g3
(g7
S'\xa6\x03ay\x12\x96\xd5A'
p606
tp607
Rp608
g416
F116.36202502250671
tp609
a(F3458.0
g3
(g7
S':\xa1\xb9&[\xc8\x00B'
p610
tp611
Rp612
g416
F116.40316700935364
tp613
a(F3673.0
g3
(g7
S'}\xbc\xc2~\xb8\x1f\xa5A'
p614
tp615
Rp616
g416
F116.4520890712738
tp617
a(F5377.0
g3
(g7
S'q9\xbc\xe7\xdf\x93\x01B'
p618
tp619
Rp620
g416
F116.3969669342041
tp621
a(F2111.0
g3
(g7
S'\x80\x7f\xfa\x01\x01l\xe2A'
p622
tp623
Rp624
g416
F116.32766699790955
tp625
a(F122045.0
g3
(g7
S'0\xa1\x1bP\xd5\xc7\x08B'
p626
tp627
Rp628
g416
F116.52579188346863
tp629
a(F54478.0
g3
(g7
S'@=XUzl\xd3A'
p630
tp631
Rp632
g416
F116.35441994667053
tp633
a(F19739.0
g3
(g7
S'\x837\xf3\x95S\xe0\x03B'
p634
tp635
Rp636
g416
F116.33691596984863
tp637
a(F8951.0
g3
(g7
S'\x93\xde"\x95\x82J\xfaA'
p638
tp639
Rp640
g416
F116.30795288085938
tp641
a(F3747.0
g3
(g7
S'\x93%V\xd6\x1e\xef\xf1A'
p642
tp643
Rp644
g416
F116.40841603279114
tp645
a(F7557.0
g3
(g7
S'\x8e#"\xf0\x90\xa6\xf0A'
p646
tp647
Rp648
g416
F116.34851098060608
tp649
a(F48241.0
g3
(g7
S'.G\x9f/4?\nB'
p650
tp651
Rp652
g416
F116.37834215164185
tp653
a(F5998.0
g3
(g7
S'M:\xd1\xdb\xa6M\xfaA'
p654
tp655
Rp656
g416
F116.3692238330841
tp657
a(F14797.0
g3
(g7
S'=\xd4\xf5\xd54\n\x00B'
p658
tp659
Rp660
g416
F116.44108414649963
tp661
a(F2011.0
g3
(g7
S'\xeb\xf4!\xe9V\xe4\xe0A'
p662
tp663
Rp664
g416
F116.32038307189941
tp665
a(F20440.0
g3
(g7
S'I\x83PT\xb3P\xf2A'
p666
tp667
Rp668
g416
F116.33608484268188
tp669
a(F10399.0
g3
(g7
S'\nM\xdf\xba\x13\x8c\xffA'
p670
tp671
Rp672
g416
F116.12055802345276
tp673
a(F1104.0
g3
(g7
S'\x80Lh\xa3\xb9\xa0\x03B'
p674
tp675
Rp676
g416
F116.14690709114075
tp677
a(F3978.0
g3
(g7
S'\x97I(\\\xb4\xb7\x05B'
p678
tp679
Rp680
g416
F116.0710289478302
tp681
a(F1463.0
g3
(g7
S'\xdc\xb1\xffs\xe0\x96\xe2A'
p682
tp683
Rp684
g416
F116.11704301834106
tp685
a(F27424.0
g3
(g7
S'\xd6\x1c\xb4\xf7G\x81\xecA'
p686
tp687
Rp688
g416
F116.02714705467224
tp689
a(F2533.0
g3
(g7
S'\x18{\xc0\x1c\x85u\x0fB'
p690
tp691
Rp692
g416
F116.03953003883362
tp693
a(F1349.0
g3
(g7
S'*eX\x8c\xccV\xefA'
p694
tp695
Rp696
g416
F115.99766707420349
tp697
a(F1565.0
g3
(g7
S'\xe2\xe3m\x82\xafU\rB'
p698
tp699
Rp700
g416
F116.00079989433289
tp701
a(F1473.0
g3
(g7
S'\xee\xda<F\xe9\r\x03B'
p702
tp703
Rp704
g416
F116.00931000709534
tp705
a(F50565.0
g3
(g7
S'\x04\xd69\xed\x08\x13\xf0A'
p706
tp707
Rp708
g416
F116.04611086845398
tp709
a(F8425.0
g3
(g7
S'\xc3\xfcG\x93$<\xfcA'
p710
tp711
Rp712
g416
F115.97100496292114
tp713
a(F20952.0
g3
(g7
S'T\x9b\xbb\x8a\xb7\xee\xecA'
p714
tp715
Rp716
g416
F116.01766896247864
tp717
a(F4817.0
g3
(g7
S'w\xdf\xd4\xcb-\xde\xfdA'
p718
tp719
Rp720
g416
F115.97890210151672
tp721
a(F9291.0
g3
(g7
S'\xea,\xf5\xd4\x90F\xe1A'
p722
tp723
Rp724
g416
F116.13413095474243
tp725
a(F3726.0
g3
(g7
S'\tw+\xae\xdf\x19\x0fB'
p726
tp727
Rp728
g416
F116.11136603355408
tp729
a(F4470.0
g3
(g7
S'\x0e\x85\xf6\xb5\\i\xfeA'
p730
tp731
Rp732
g416
F115.97338700294495
tp733
a(F3930.0
g3
(g7
S'`\x86\xc6\xa9\xe43\rB'
p734
tp735
Rp736
g416
F116.01346492767334
tp737
a(F20744.0
g3
(g7
S'\xa9\xf3u\x9a\xee\xed\x02B'
p738
tp739
Rp740
g416
F115.97785997390747
tp741
a(F7410.0
g3
(g7
S' \x84\xb8f\x0f\xcb\xeaA'
p742
tp743
Rp744
g416
F115.9653971195221
tp745
a(F9986.0
g3
(g7
S'\r\x85\xab\x01\xc3<\rB'
p746
tp747
Rp748
g416
F116.05457401275635
tp749
a(F44298.0
g3
(g7
S'\x9d^:^\x8fN\x01B'
p750
tp751
Rp752
g416
F116.0404281616211
tp753
a(F56281.0
g3
(g7
S'\x802\x96#2M\xf5A'
p754
tp755
Rp756
g416
F116.24298691749573
tp757
a(F3463.0
g3
(g7
S'\xa7gJt\x97W\xecA'
p758
tp759
Rp760
g416
F116.5545551776886
tp761
a(F1642.0
g3
(g7
S'w+%\xb0\x1f\xab\xf1A'
p762
tp763
Rp764
g416
F116.60735511779785
tp765
a(F2984.0
g3
(g7
S'\x83\xe2@\xa4\xc1\x18\x05B'
p766
tp767
Rp768
g416
F116.63844990730286
tp769
a(F66932.0
g3
(g7
S'\x86Ws\xc8^Q\x0fB'
p770
tp771
Rp772
g416
F116.66885805130005
tp773
a(F37515.0
g3
(g7
S'Y\x8bX\x0f\xc6\xe6\xfbA'
p774
tp775
Rp776
g416
F116.52100205421448
tp777
a(F2894.0
g3
(g7
S'Q\xd3d\xe2\xa1\xe4\xd9A'
p778
tp779
Rp780
g416
F116.4171199798584
tp781
a(F4288.0
g3
(g7
S'\x1a@y=\xcd\xbf\xe3A'
p782
tp783
Rp784
g416
F116.46736192703247
tp785
a(F2926.0
g3
(g7
S'\xb1dd=!\x98\x01B'
p786
tp787
Rp788
g416
F116.36855697631836
tp789
a(F226460.0
g3
(g7
S'\xb0`\xcf\x8aj\xc5\xceA'
p790
tp791
Rp792
g416
F116.43592500686646
tp793
a(F1904.0
g3
(g7
S'95\xbf\x17\xce\xc4\tB'
p794
tp795
Rp796
g416
F116.41623711585999
tp797
a(F2660.0
g3
(g7
S'\xf2\xa5\xee\x0b__\tB'
p798
tp799
Rp800
g416
F116.53208899497986
tp801
a(F4926.0
g3
(g7
S')q\x8a\x02e\xfa\xc8A'
p802
tp803
Rp804
g416
F116.56701803207397
tp805
a(F1250.0
g3
(g7
S'\x1dK\xd2O\x17\xf7\xe0A'
p806
tp807
Rp808
g416
F116.51946306228638
tp809
a(F5357.0
g3
(g7
S'\xc8\x0e\x02_;N\x01B'
p810
tp811
Rp812
g416
F116.39267802238464
tp813
aaI120
aI34
aF1.574786901473999
aa(lp814
(lp815
(F147740.0
g3
(g7
S'\xb7\xd9\xf0\xb28\x1e\xf2A'
p816
tp817
Rp818
(lp819
F1.0
aF17000000000.0
aF111.76717901229858
tp820
a(F970.0
g3
(g7
S'\xcb\xba@\x83\xb5\x03\xf0A'
p821
tp822
Rp823
g819
F111.61768794059753
tp824
a(F2878.0
g3
(g7
S'\xc9\xa7c\xcf\x86\x83\x0cB'
p825
tp826
Rp827
g819
F111.90063714981079
tp828
a(F4170.0
g3
(g7
S'\xf2\x9c\xb4W\xc5\x17\x0eB'
p829
tp830
Rp831
g819
F112.42149686813354
tp832
a(F21732.0
g3
(g7
S'~`\x8d\xae\x1a%\x04B'
p833
tp834
Rp835
g819
F112.61948490142822
tp836
a(F16394.0
g3
(g7
S'\x8a\xfft:\x95S\xf6A'
p837
tp838
Rp839
g819
F112.44619798660278
tp840
a(F2842.0
g3
(g7
S'R\xda\x03\xbf\x0c\xa4\xecA'
p841
tp842
Rp843
g819
F112.78829002380371
tp844
a(F7391.0
g3
(g7
S'C\x8b\xa3\xe9\xe2\x93\xf5A'
p845
tp846
Rp847
g819
F112.67617392539978
tp848
a(F23044.0
g3
(g7
S'v\x00e}\x99\xc2\xf6A'
p849
tp850
Rp851
g819
F112.5573959350586
tp852
a(F58995.0
g3
(g7
S'\xc5\r\xcb\xb9\x0f\xe4\xefA'
p853
tp854
Rp855
g819
F112.53571081161499
tp856
a(F17489.0
g3
(g7
S'?;\xf5\xaf]n\xeeA'
p857
tp858
Rp859
g819
F112.50917100906372
tp860
a(F2824.0
g3
(g7
S'\x08\xe0\x9f(\x94\x9e\xfeA'
p861
tp862
Rp863
g819
F112.59937906265259
tp864
a(F1614.0
g3
(g7
S'\xc3B\x01\xf4\xb9\x8d\xe9A'
p865
tp866
Rp867
g819
F112.54867911338806
tp868
a(F93913.0
g3
(g7
S'\x0c\x16\xeb\xa1\x13\xee\xf4A'
p869
tp870
Rp871
g819
F112.79074287414551
tp872
a(F19959.0
g3
(g7
S'h"\xb5\xbe\xbe?\xd3A'
p873
tp874
Rp875
g819
F113.11224794387817
tp876
a(F2246.0
g3
(g7
S'\xb8sCN\xae=\xf5A'
p877
tp878
Rp879
g819
F112.9805679321289
tp880
a(F1056955.0
g3
(g7
S'\x08\xa4\x05o\x97)\xe7A'
p881
tp882
Rp883
g819
F112.94490194320679
tp884
a(F4881.0
g3
(g7
S'\xecq\xbcT\xb3\xbc\xebA'
p885
tp886
Rp887
g819
F112.55011200904846
tp888
a(F5590.0
g3
(g7
S'\xc2r!\\\xcf\xf5\x01B'
p889
tp890
Rp891
g819
F112.52663207054138
tp892
a(F15080.0
g3
(g7
S'\xbc\xf0|\xa7J\x83\x0bB'
p893
tp894
Rp895
g819
F112.46201300621033
tp896
a(F2985.0
g3
(g7
S'$5\xd4\xd6o\xdd\xf4A'
p897
tp898
Rp899
g819
F112.46332311630249
tp900
a(F4750.0
g3
(g7
S'\xb8gw3\xafK\x04B'
p901
tp902
Rp903
g819
F112.6019959449768
tp904
a(F229107.0
g3
(g7
S'\x01\xad/\x1a\x10\x95\xf0A'
p905
tp906
Rp907
g819
F112.44350099563599
tp908
a(F72916.0
g3
(g7
S'\xdd1$4\xeb\xcc\x06B'
p909
tp910
Rp911
g819
F112.55400109291077
tp912
a(F2879.0
g3
(g7
S'h*{c\x88>\xfcA'
p913
tp914
Rp915
g819
F112.60182094573975
tp916
a(F2141.0
g3
(g7
S'\xb5/\x80\xcf\xe5\x1a\rB'
p917
tp918
Rp919
g819
F112.56967282295227
tp920
a(F2800.0
g3
(g7
S'\xfb\xe3\xd9\xfcQ)\x05B'
p921
tp922
Rp923
g819
F112.50424289703369
tp924
a(F160943.0
g3
(g7
S'\x95\xcb)<\xa7\xb2\xefA'
p925
tp926
Rp927
g819
F112.46630477905273
tp928
a(F3600.0
g3
(g7
S'\xb9]\xc8\x1fm\xaf\xedA'
p929
tp930
Rp931
g819
F112.52918887138367
tp932
a(F17816.0
g3
(g7
S'\xa4\xa6\xb8\x9c}\x7f\xe2A'
p933
tp934
Rp935
g819
F112.49354290962219
tp936
a(F6101.0
g3
(g7
S'\xdb\xc1\xbb\xa3\xcaR\xfcA'
p937
tp938
Rp939
g819
F112.58248901367188
tp940
a(F7256.0
g3
(g7
S'\xf8\xad\x92j\xacw\xe6A'
p941
tp942
Rp943
g819
F112.55828094482422
tp944
a(F67277.0
g3
(g7
S'\xedU\x7f\xb8\xe7\xa4\x08B'
p945
tp946
Rp947
g819
F112.41026306152344
tp948
a(F41914.0
g3
(g7
S'\x06\xaf\x0f\x7fZ\xee\xffA'
p949
tp950
Rp951
g819
F112.57445693016052
tp952
a(F6119.0
g3
(g7
S'\xea\x9c|H\xd3\xc7\x05B'
p953
tp954
Rp955
g819
F112.79146099090576
tp956
a(F7081.0
g3
(g7
S'\x07\x00\xf9\xce\xb4h\x0fB'
p957
tp958
Rp959
g819
F112.52180314064026
tp960
a(F9954.0
g3
(g7
S'\x83\x84s;\x84\xd8\x04B'
p961
tp962
Rp963
g819
F112.65602993965149
tp964
a(F6583.0
g3
(g7
S'\xac\xc2\xe8\x1a-z\xe3A'
p965
tp966
Rp967
g819
F112.52714800834656
tp968
a(F26655.0
g3
(g7
S'\x8d\x1e\x9b}-\xb6\xf0A'
p969
tp970
Rp971
g819
F112.35475397109985
tp972
a(F1447.0
g3
(g7
S'*N\xd2\tP\x11\xfaA'
p973
tp974
Rp975
g819
F112.43219304084778
tp976
a(F21034.0
g3
(g7
S'\xcc\xec\xcc)\xf5\x80\tB'
p977
tp978
Rp979
g819
F112.49477982521057
tp980
a(F1474.0
g3
(g7
S'\x9d\xb8\xc4.j\xbe\xf9A'
p981
tp982
Rp983
g819
F112.42222499847412
tp984
a(F7468.0
g3
(g7
S'\xca\x1d\xc2Bi]\x04B'
p985
tp986
Rp987
g819
F112.41596794128418
tp988
a(F7722.0
g3
(g7
S'\xf2\xe3\xc3H\x1a\x84\x00B'
p989
tp990
Rp991
g819
F112.49599385261536
tp992
a(F33895.0
g3
(g7
S'L\x16d\xc1\xbdJ\x0bB'
p993
tp994
Rp995
g819
F112.70735001564026
tp996
a(F7920.0
g3
(g7
S'Zd\xb3T#\x97\x00B'
p997
tp998
Rp999
g819
F112.82515597343445
tp1000
a(F1819.0
g3
(g7
S'\xaehu\xecj\x0c\xf9A'
p1001
tp1002
Rp1003
g819
F112.6744110584259
tp1004
a(F65782.0
g3
(g7
S'*\x02\xe8\xa6w2\xfdA'
p1005
tp1006
Rp1007
g819
F112.55722713470459
tp1008
a(F30225.0
g3
(g7
S'"6\xbc\xae}i\xfeA'
p1009
tp1010
Rp1011
g819
F112.55314707756042
tp1012
a(F42723.0
g3
(g7
S'\xe3\xce\x84P\x11\xcd\xd5A'
p1013
tp1014
Rp1015
g819
F112.53656888008118
tp1016
a(F8385.0
g3
(g7
S'\xe3\x95\x16W\xa6\xaf\xf1A'
p1017
tp1018
Rp1019
g819
F112.67975401878357
tp1020
a(F9735.0
g3
(g7
S'+\x98<\xefd\xa2\xf8A'
p1021
tp1022
Rp1023
g819
F112.74523997306824
tp1024
a(F7844.0
g3
(g7
S'=\xcfB\x9e\x1d\x9e\x02B'
p1025
tp1026
Rp1027
g819
F112.75003290176392
tp1028
a(F103706.0
g3
(g7
S't\xd6\xd8\xb3\xac2\tB'
p1029
tp1030
Rp1031
g819
F112.74328207969666
tp1032
a(F12435.0
g3
(g7
S'f\x1fPM\xec)\xf4A'
p1033
tp1034
Rp1035
g819
F112.78121399879456
tp1036
a(F19959.0
g3
(g7
S'\xb6PWv\xe9N\xfeA'
p1037
tp1038
Rp1039
g819
F112.75094604492188
tp1040
a(F9760.0
g3
(g7
S'\x92\xa9\x01\xe0\x02\x0c\x05B'
p1041
tp1042
Rp1043
g819
F112.7989571094513
tp1044
a(F11637.0
g3
(g7
S'S\x18\x97\xf9,R\x01B'
p1045
tp1046
Rp1047
g819
F112.75217819213867
tp1048
a(F22734.0
g3
(g7
S'9[\xa0\x80"\x08\x0bB'
p1049
tp1050
Rp1051
g819
F112.73897004127502
tp1052
a(F3787.0
g3
(g7
S'EBeh+G\x02B'
p1053
tp1054
Rp1055
g819
F112.75701904296875
tp1056
a(F47200.0
g3
(g7
S't\xfb\xbe\xdc\xfcy\xdfA'
p1057
tp1058
Rp1059
g819
F112.75589489936829
tp1060
a(F7013.0
g3
(g7
S'q\x01\x82\x8e\xbb\xbb\xdbA'
p1061
tp1062
Rp1063
g819
F112.78893995285034
tp1064
a(F8848.0
g3
(g7
S'\x18I&\x9egH\x06B'
p1065
tp1066
Rp1067
g819
F112.68641901016235
tp1068
a(F549700.0
g3
(g7
S'\x12\xb9\xc1<\xa5=\x01B'
p1069
tp1070
Rp1071
g819
F112.5952730178833
tp1072
a(F3680.0
g3
(g7
S'3\xf2\r#\x02\x0e\xfaA'
p1073
tp1074
Rp1075
g819
F112.63287687301636
tp1076
a(F8001.0
g3
(g7
S'\xee\xb7\xd7\xfd\x08\xa0\x07B'
p1077
tp1078
Rp1079
g819
F112.60805296897888
tp1080
a(F18231.0
g3
(g7
S'F\xab\x1b0i\xa2\xf0A'
p1081
tp1082
Rp1083
g819
F112.6571798324585
tp1084
a(F6872.0
g3
(g7
S'?bC\\)\xbb\x03B'
p1085
tp1086
Rp1087
g819
F112.80148792266846
tp1088
a(F3531.0
g3
(g7
S'6\x8edJa_\x91A'
p1089
tp1090
Rp1091
g819
F112.60973906517029
tp1092
a(F1893.0
g3
(g7
S'\xcf\x8f>\xab\xdcq\rB'
p1093
tp1094
Rp1095
g819
F112.64371490478516
tp1096
a(F3906.0
g3
(g7
S'\x8a\xa9\xd3\x8a^\xfb\x08B'
p1097
tp1098
Rp1099
g819
F112.61830592155457
tp1100
a(F18341.0
g3
(g7
S'\t\xc0\x18=\xe9\xc9\xccA'
p1101
tp1102
Rp1103
g819
F112.6392149925232
tp1104
a(F10420.0
g3
(g7
S'\x8d\xc0\xd1\xcc\xbf\xe2\xf1A'
p1105
tp1106
Rp1107
g819
F112.66030693054199
tp1108
a(F3373.0
g3
(g7
S'\x9a\xc0U\xe0\xe2\xf0\tB'
p1109
tp1110
Rp1111
g819
F112.60962581634521
tp1112
a(F10950.0
g3
(g7
S'0E\xe3\x00\xde5\xf2A'
p1113
tp1114
Rp1115
g819
F112.60977292060852
tp1116
a(F2128.0
g3
(g7
S'y\x1b\x91\xb7\x84]\xe5A'
p1117
tp1118
Rp1119
g819
F112.61729717254639
tp1120
a(F44939.0
g3
(g7
S'\x84\xd8\xeb\x93R\x12\xe6A'
p1121
tp1122
Rp1123
g819
F112.61565804481506
tp1124
a(F1800.0
g3
(g7
S'\x8f\xde\xe2\xea)\xac\x08B'
p1125
tp1126
Rp1127
g819
F112.66380715370178
tp1128
a(F9161.0
g3
(g7
S'\x9a\xae.\x15\xca\xb7\x0bB'
p1129
tp1130
Rp1131
g819
F112.5773720741272
tp1132
a(F5349.0
g3
(g7
S'\xc75d\xda\xf8\xf9\x04B'
p1133
tp1134
Rp1135
g819
F112.5760350227356
tp1136
a(F4717.0
g3
(g7
S'\x7f\xecf@\x98\xac\xfaA'
p1137
tp1138
Rp1139
g819
F112.59827399253845
tp1140
a(F1315.0
g3
(g7
S'\x96d\x07m\xddd\xf2A'
p1141
tp1142
Rp1143
g819
F112.65931797027588
tp1144
a(F1579.0
g3
(g7
S'\x94\x85\x93\x04\x0e\x1d\x02B'
p1145
tp1146
Rp1147
g819
F112.70260691642761
tp1148
a(F2086.0
g3
(g7
S'\x90^n;\xc1\xd9\xd9A'
p1149
tp1150
Rp1151
g819
F112.67926692962646
tp1152
a(F28476.0
g3
(g7
S'\xc8\x0bh\x03G\xc5\x02B'
p1153
tp1154
Rp1155
g819
F112.61598610877991
tp1156
a(F5094.0
g3
(g7
S'\x1c\x9a\x7f}\x0e>\xf7A'
p1157
tp1158
Rp1159
g819
F112.60982179641724
tp1160
a(F130168.0
g3
(g7
S'\\\xd8\x1a\xd9H\xf0\x07B'
p1161
tp1162
Rp1163
g819
F112.55914402008057
tp1164
a(F21655.0
g3
(g7
S'\xcd2\x80\x03}\xe9\x00B'
p1165
tp1166
Rp1167
g819
F112.55513286590576
tp1168
a(F5162.0
g3
(g7
S'/.\xc1\x02\nE\xc1A'
p1169
tp1170
Rp1171
g819
F112.71951508522034
tp1172
a(F444096.0
g3
(g7
S'\xafK@\xe4\xd2P\xdcA'
p1173
tp1174
Rp1175
g819
F112.68385791778564
tp1176
a(F2100.0
g3
(g7
S':\x07I\xf0\xe9>\xfbA'
p1177
tp1178
Rp1179
g819
F113.00074005126953
tp1180
a(F6481.0
g3
(g7
S'\xc3~\x97\x13\xefF\xfeA'
p1181
tp1182
Rp1183
g819
F112.90379285812378
tp1184
a(F1086.0
g3
(g7
S'\x03}\xdf\xfb\x08R\tB'
p1185
tp1186
Rp1187
g819
F112.61489486694336
tp1188
a(F9515.0
g3
(g7
S'\x14?\x9eo2\xc2\x03B'
p1189
tp1190
Rp1191
g819
F112.64862203598022
tp1192
a(F10335.0
g3
(g7
S'\x84\x1d\xed\xe0\xab$\x05B'
p1193
tp1194
Rp1195
g819
F112.61042094230652
tp1196
a(F8721.0
g3
(g7
S'u\x97\x1a\xed\xa4\xab\xf1A'
p1197
tp1198
Rp1199
g819
F112.8570191860199
tp1200
a(F4387.0
g3
(g7
S'\xcb#\x06\xbd\x0b=\nB'
p1201
tp1202
Rp1203
g819
F112.81489896774292
tp1204
a(F49792.0
g3
(g7
S'\xa0G\x12\x0e\xb1E\x04B'
p1205
tp1206
Rp1207
g819
F112.66385102272034
tp1208
a(F652.0
g3
(g7
S'!\x9f\x9an\x9az\xd6A'
p1209
tp1210
Rp1211
g819
F112.58498191833496
tp1212
a(F5313.0
g3
(g7
S'y\x8d\xc4\x83>F\x01B'
p1213
tp1214
Rp1215
g819
F112.6547691822052
tp1216
aaF110.0
aI34
aF1.2799861431121826
aa(lp1217
(lp1218
(F5194.0
g3
(g7
S'Tp\x7f\x98\x949\x99T'
p1219
tp1220
Rp1221
(lp1222
I0
aF1.7e+100
aF70.50846695899963
tp1223
a(F6209.0
g3
(g7
S'U\x14\x19)(!\xa6T'
p1224
tp1225
Rp1226
g1222
F70.55893206596375
tp1227
a(F2115.0
g3
(g7
S'$\xf7\x03%\xa0}\xb1T'
p1228
tp1229
Rp1230
g1222
F70.64918994903564
tp1231
a(F5798.0
g3
(g7
S'\x19\x10#\xd2>\xfd\xb7T'
p1232
tp1233
Rp1234
g1222
F70.77392506599426
tp1235
a(F36057.0
g3
(g7
S'\xdd\xfa\xc7\n\x05nYT'
p1236
tp1237
Rp1238
g1222
F70.75716400146484
tp1239
a(F5559.0
g3
(g7
S'E\xd2Z\x0b.\x95\x80T'
p1240
tp1241
Rp1242
g1222
F70.80369305610657
tp1243
a(F14474.0
g3
(g7
S'\x0f\xd3\xe8\xe9VF\xb5T'
p1244
tp1245
Rp1246
g1222
F70.79288601875305
tp1247
a(F15099.0
g3
(g7
S'\xc2+Dp\x95\xcd\xb8T'
p1248
tp1249
Rp1250
g1222
F70.65286993980408
tp1251
a(F14858.0
g3
(g7
S'_\x07\x1e]eA\xa1T'
p1252
tp1253
Rp1254
g1222
F70.66393995285034
tp1255
a(F5460.0
g3
(g7
S'\xee\xd5\xd2U9\xc0\xbbT'
p1256
tp1257
Rp1258
g1222
F70.65228509902954
tp1259
a(F11957.0
g3
(g7
S'\xb2\x80\xb6\xc7K\xe1\xbaT'
p1260
tp1261
Rp1262
g1222
F70.65408396720886
tp1263
a(F9108.0
g3
(g7
S'\xb9\x1a\x7f\xf5\xd8F\xa5T'
p1264
tp1265
Rp1266
g1222
F70.73607802391052
tp1267
a(F9216.0
g3
(g7
S'DJ\x1c.\x06\xee\xa8T'
p1268
tp1269
Rp1270
g1222
F70.69268202781677
tp1271
a(F44469.0
g3
(g7
S'6\x1c\xba\x8a>e\xbcT'
p1272
tp1273
Rp1274
g1222
F70.69061088562012
tp1275
a(F13775.0
g3
(g7
S'z\xa0\x19+\x15\x90oT'
p1276
tp1277
Rp1278
g1222
F70.85615396499634
tp1279
a(F1496.0
g3
(g7
S':\xa9\xcf\xf4&]\xa0T'
p1280
tp1281
Rp1282
g1222
F70.71560311317444
tp1283
a(F4613.0
g3
(g7
S'\xfd\xcc\xd0Ot\x85\xbcT'
p1284
tp1285
Rp1286
g1222
F70.61314392089844
tp1287
a(F9555.0
g3
(g7
S'\xdf\x16\xb7\x9a\xc6l\x92T'
p1288
tp1289
Rp1290
g1222
F70.59524083137512
tp1291
a(F4844.0
g3
(g7
S'\xb4\xc2?yc\xb9\xbdT'
p1292
tp1293
Rp1294
g1222
F70.61699104309082
tp1295
a(F7132.0
g3
(g7
S'?mn\x83+\x1e\xa4T'
p1296
tp1297
Rp1298
g1222
F70.61532998085022
tp1299
a(F47440.0
g3
(g7
S'\xbb\xccf\xe2\xfa\xf5\xb9T'
p1300
tp1301
Rp1302
g1222
F70.6124358177185
tp1303
a(F10294.0
g3
(g7
S'\xa5\x12\x19\xfbN\x04\xbeT'
p1304
tp1305
Rp1306
g1222
F70.68145895004272
tp1307
a(F9526.0
g3
(g7
S'\x82\xbb\xdd\xa4-\x13\xa8T'
p1308
tp1309
Rp1310
g1222
F70.66122388839722
tp1311
a(F5622.0
g3
(g7
S'\x072\xf8\xfe\xa5u\xa0T'
p1312
tp1313
Rp1314
g1222
F70.68124485015869
tp1315
a(F13849.0
g3
(g7
S'\x81I\xd5\x1b\xff\xd8\xadT'
p1316
tp1317
Rp1318
g1222
F70.64079093933105
tp1319
a(F21001.0
g3
(g7
S'%\xf7v\xdb\x05\xe7\x9dT'
p1320
tp1321
Rp1322
g1222
F70.62551593780518
tp1323
a(F3324.0
g3
(g7
S'\xd5~\xcf\x11\xb3\x87\xacT'
p1324
tp1325
Rp1326
g1222
F70.62250804901123
tp1327
a(F4465.0
g3
(g7
S'\x9aO\xf0\xfb\xfe}\xaaT'
p1328
tp1329
Rp1330
g1222
F70.80632901191711
tp1331
a(F19865.0
g3
(g7
S'3u\x8bT\xf3q\xbbT'
p1332
tp1333
Rp1334
g1222
F70.76279997825623
tp1335
a(F102350.0
g3
(g7
S'#\xc3\x9a\xb6\xe7\xc3\xa1T'
p1336
tp1337
Rp1338
g1222
F70.75043606758118
tp1339
a(F4878.0
g3
(g7
S'\x7f$\x84\r\xca\x1e\xa3T'
p1340
tp1341
Rp1342
g1222
F70.82744598388672
tp1343
a(F3706.0
g3
(g7
S'\x00\x8d\xc9\xb1\xa8\xcb\xaeT'
p1344
tp1345
Rp1346
g1222
F70.83328604698181
tp1347
a(F6998.0
g3
(g7
S'TG\x1f\xde\x03\xe3\x95T'
p1348
tp1349
Rp1350
g1222
F70.7860209941864
tp1351
a(F34017.0
g3
(g7
S',\xdd\x03>\xbe7\x92T'
p1352
tp1353
Rp1354
g1222
F70.7984631061554
tp1355
a(F9813.0
g3
(g7
S'\xd9\xdb\xc8\xb0^\xe0\xb1T'
p1356
tp1357
Rp1358
g1222
F70.78179693222046
tp1359
a(F80886.0
g3
(g7
S'\x80(s\x82W9\xbaT'
p1360
tp1361
Rp1362
g1222
F70.74280405044556
tp1363
a(F1493.0
g3
(g7
S'\xca%v\xd4\xf41\xb4T'
p1364
tp1365
Rp1366
g1222
F70.79894399642944
tp1367
a(F4160.0
g3
(g7
S'\xac\x8e\xa6\x7f\xdd\n\xb1T'
p1368
tp1369
Rp1370
g1222
F70.8511061668396
tp1371
a(F6589.0
g3
(g7
S'\x1c\xd7\xdd\x81^\xbepT'
p1372
tp1373
Rp1374
g1222
F70.82219099998474
tp1375
a(F4801.0
g3
(g7
S'W\t\xe4\x0b\xcf\xb4\xbaT'
p1376
tp1377
Rp1378
g1222
F70.82629489898682
tp1379
a(F2200.0
g3
(g7
S'\xb5\xa6\x84Mv:\x87T'
p1380
tp1381
Rp1382
g1222
F70.88321089744568
tp1383
a(F2547.0
g3
(g7
S'.\x99N\xaa\x98\xfd\xb3T'
p1384
tp1385
Rp1386
g1222
F70.90958380699158
tp1387
a(F6686.0
g3
(g7
S'\\\xd8\x11\x02\xdd\x7f\xb6T'
p1388
tp1389
Rp1390
g1222
F70.76555395126343
tp1391
a(F2748.0
g3
(g7
S'*#\x0c\x87\xb9n\xb3T'
p1392
tp1393
Rp1394
g1222
F70.698410987854
tp1395
a(F130921.0
g3
(g7
S'\x115O\xed8\xef\xadT'
p1396
tp1397
Rp1398
g1222
F70.85015392303467
tp1399
a(F1855.0
g3
(g7
S'V\xdbaJV\x80\x9fT'
p1400
tp1401
Rp1402
g1222
F71.12487888336182
tp1403
a(F46782.0
g3
(g7
S'\xa2\x1a\x10\r1u\xb0T'
p1404
tp1405
Rp1406
g1222
F71.11051893234253
tp1407
a(F6255.0
g3
(g7
S'\xd6\xbc5\xd4}\x9c\xb9T'
p1408
tp1409
Rp1410
g1222
F71.08741593360901
tp1411
a(F6100.0
g3
(g7
S'\xb1\xe6\x0f#\xb6\x11\xb0T'
p1412
tp1413
Rp1414
g1222
F70.8792359828949
tp1415
a(F23622.0
g3
(g7
S'\xda\xb5b\xa3\xf7\xef\xaaT'
p1416
tp1417
Rp1418
g1222
F70.90729999542236
tp1419
a(F10559.0
g3
(g7
S'c#\x8f\xe8\x07\xab\xb5T'
p1420
tp1421
Rp1422
g1222
F70.85269689559937
tp1423
a(F5629.0
g3
(g7
S'I\x90)\xb1\x9f\x96\x95T'
p1424
tp1425
Rp1426
g1222
F70.91945195198059
tp1427
a(F252947.0
g3
(g7
S'\xb9\xb7\xcb\xd6\xc0q\x8bT'
p1428
tp1429
Rp1430
g1222
F70.91684198379517
tp1431
a(F10662.0
g3
(g7
S'\xce[\xf1\x8d\xb5J\xb3T'
p1432
tp1433
Rp1434
g1222
F70.85030508041382
tp1435
a(F19906.0
g3
(g7
S')2C`9\x8a\xacT'
p1436
tp1437
Rp1438
g1222
F70.90667200088501
tp1439
a(F2012.0
g3
(g7
S':he\x84\xb8"gT'
p1440
tp1441
Rp1442
g1222
F70.92669701576233
tp1443
a(F50525.0
g3
(g7
S'\xfa\x10\xf2!\x05?\xa6T'
p1444
tp1445
Rp1446
g1222
F70.90418982505798
tp1447
a(F9831.0
g3
(g7
S'\xad\xed\xbc\xf7\x97\x94\xa1T'
p1448
tp1449
Rp1450
g1222
F70.88285684585571
tp1451
a(F8842.0
g3
(g7
S'\x1d\xd7\x1e\xd7\x83:\xa3T'
p1452
tp1453
Rp1454
g1222
F70.91886711120605
tp1455
a(F243850.0
g3
(g7
S'\xc0\r\xa0\\\x91e\x99T'
p1456
tp1457
Rp1458
g1222
F70.89310097694397
tp1459
a(F11350.0
g3
(g7
S'\xfc#\xe4\x14\xcd\xdc\xa5T'
p1460
tp1461
Rp1462
g1222
F70.91152906417847
tp1463
a(F11496.0
g3
(g7
S'\xc2\xca\xea\xca\xe2\xb2\xa8T'
p1464
tp1465
Rp1466
g1222
F72.8325400352478
tp1467
a(F2087.0
g3
(g7
S'\xda\nHk\x86\xa6\x9aT'
p1468
tp1469
Rp1470
g1222
F70.81180095672607
tp1471
a(F3580.0
g3
(g7
S'w\xa2\x19m\xee\xef\xaaT'
p1472
tp1473
Rp1474
g1222
F70.84974598884583
tp1475
a(F11822.0
g3
(g7
S'\xc2\xa1\x81m2\r\xb7T'
p1476
tp1477
Rp1478
g1222
F70.726646900177
tp1479
a(F93901.0
g3
(g7
S'\x0f# h\x8a\xe0\xafT'
p1480
tp1481
Rp1482
g1222
F70.76269197463989
tp1483
a(F6897.0
g3
(g7
S'\xa2\x07\x1e\xb58A\xb5T'
p1484
tp1485
Rp1486
g1222
F70.75444388389587
tp1487
a(F19398.0
g3
(g7
S'}\xb9\x85V\xed0\xb6T'
p1488
tp1489
Rp1490
g1222
F70.77421808242798
tp1491
a(F131849.0
g3
(g7
S'TfHL\xc7V\x9bT'
p1492
tp1493
Rp1494
g1222
F70.77989196777344
tp1495
a(F43015.0
g3
(g7
S'.\xde\x1a\xb9:\xe5\xb8T'
p1496
tp1497
Rp1498
g1222
F70.79711484909058
tp1499
a(F15419.0
g3
(g7
S'o\xa7\xd2\x02\xf2\xa9\xbeT'
p1500
tp1501
Rp1502
g1222
F70.80070805549622
tp1503
a(F4756.0
g3
(g7
S'>\\L\x01\x1c\xce\xa0T'
p1504
tp1505
Rp1506
g1222
F70.7012689113617
tp1507
a(F175353.0
g3
(g7
S"1`\xee'\xfa\x95\xb7T"
p1508
tp1509
Rp1510
g1222
F70.71545600891113
tp1511
a(F57125.0
g3
(g7
S't\x13\x0e\xb2\xdf\xc9\x9bT'
p1512
tp1513
Rp1514
g1222
F70.77686905860901
tp1515
a(F26574.0
g3
(g7
S'\xfc\x8cv\r\xaa\x16\xbcT'
p1516
tp1517
Rp1518
g1222
F70.72971296310425
tp1519
a(F84117.0
g3
(g7
S'\xbdZe\xdc\x8a\x0e\xb9T'
p1520
tp1521
Rp1522
g1222
F70.69509220123291
tp1523
a(F29568.0
g3
(g7
S'\x14`\xab\x89~+sT'
p1524
tp1525
Rp1526
g1222
F70.77988791465759
tp1527
a(F142585.0
g3
(g7
S'\x89\x99@\x04\xb0\x1a\xb6T'
p1528
tp1529
Rp1530
g1222
F70.78876495361328
tp1531
a(F14745.0
g3
(g7
S'W\xcf\xea\xb9\xad\xe1\x92T'
p1532
tp1533
Rp1534
g1222
F70.7656180858612
tp1535
a(F8490.0
g3
(g7
S'\xca"W\xd8r\x92\xbcT'
p1536
tp1537
Rp1538
g1222
F70.89619493484497
tp1539
a(F29195.0
g3
(g7
S'\xd5\x9eG\x93\x92\xfe\xb3T'
p1540
tp1541
Rp1542
g1222
F70.7488660812378
tp1543
a(F4976.0
g3
(g7
S'B\x96\xaeM^\\\x96T'
p1544
tp1545
Rp1546
g1222
F70.76727604866028
tp1547
a(F11472.0
g3
(g7
S'\xd9E\x17\x19\xc0\x1a\xb5T'
p1548
tp1549
Rp1550
g1222
F70.780189037323
tp1551
a(F4830.0
g3
(g7
S'\xf5#\xefM\x89T\xa2T'
p1552
tp1553
Rp1554
g1222
F70.75187420845032
tp1555
a(F10074.0
g3
(g7
S'\x02<\xf1F\xe0\xcb\xb0T'
p1556
tp1557
Rp1558
g1222
F70.7693190574646
tp1559
a(F6336.0
g3
(g7
S'\xe5^Mx\x82\x98\xb6T'
p1560
tp1561
Rp1562
g1222
F70.84354305267334
tp1563
a(F20682.0
g3
(g7
S"\xf9jx?V'\x86T"
p1564
tp1565
Rp1566
g1222
F70.79103517532349
tp1567
a(F95542.0
g3
(g7
S'-\xfa\x1c\xb5\xd5\xe3\xaaT'
p1568
tp1569
Rp1570
g1222
F70.66031002998352
tp1571
a(F12490.0
g3
(g7
S'R\x9bu&cY\xbcT'
p1572
tp1573
Rp1574
g1222
F70.72781205177307
tp1575
a(F4462.0
g3
(g7
S'3\x02\xdb\xe4M\x8a\xabT'
p1576
tp1577
Rp1578
g1222
F70.71614503860474
tp1579
a(F2721.0
g3
(g7
S'\x9c\xfcP\x883\x90\xa4T'
p1580
tp1581
Rp1582
g1222
F70.58061194419861
tp1583
a(F77499.0
g3
(g7
S'\x89\xc9^\xd2s7\xb4T'
p1584
tp1585
Rp1586
g1222
F70.68897604942322
tp1587
a(F17529.0
g3
(g7
S'\xe3\x94a\xcd\xbe\xc4\xa7T'
p1588
tp1589
Rp1590
g1222
F70.67115092277527
tp1591
a(F4094.0
g3
(g7
S'`1\x89\xd6bN\xa8T'
p1592
tp1593
Rp1594
g1222
F70.69518494606018
tp1595
a(F1990.0
g3
(g7
S'\xb9Q&\x0f\xd9\x96\xaaT'
p1596
tp1597
Rp1598
g1222
F70.72535300254822
tp1599
a(F3626.0
g3
(g7
S'\xd5I\x82\x1c\x81\xc3\xb1T'
p1600
tp1601
Rp1602
g1222
F70.72629809379578
tp1603
a(F2536.0
g3
(g7
S'$J\xefU\x00\xb0\xb9T'
p1604
tp1605
Rp1606
g1222
F70.71756911277771
tp1607
a(F3451.0
g3
(g7
S'\xbf\x92\\n\x184\xafT'
p1608
tp1609
Rp1610
g1222
F70.79929995536804
tp1611
a(F3454.0
g3
(g7
S'\x0biH\x9e\x7f\x05\xacT'
p1612
tp1613
Rp1614
g1222
F70.7224907875061
tp1615
a(F9239.0
g3
(g7
S'{*\x81\xa2\xfb\xaa\xb9T'
p1616
tp1617
Rp1618
g1222
F70.65668177604675
tp1619
aaI70
aI334
aF0.49265313148498535
aa(lp1620
(lp1621
(F28301.0
g3
(g7
S'\xd8Tz\x9d\xa2_\xaeT'
p1622
tp1623
Rp1624
(lp1625
I0
aF1.7e+100
aF65.28095602989197
tp1626
a(F11348.0
g3
(g7
S'\xb1o\xc4U\xd7\x89\x81T'
p1627
tp1628
Rp1629
g1625
F65.24117302894592
tp1630
a(F7045.0
g3
(g7
S'\x16\xfdr\x00\x12\x8b\xb2T'
p1631
tp1632
Rp1633
g1625
F65.32516098022461
tp1634
a(F86979.0
g3
(g7
S'\x19\x1c\xae\n\x8e\x95\x95T'
p1635
tp1636
Rp1637
g1625
F65.27221298217773
tp1638
a(F118324.0
g3
(g7
S'\x84s\x14\xdd\x800\xa1T'
p1639
tp1640
Rp1641
g1625
F65.39885807037354
tp1642
a(F3061.0
g3
(g7
S'o\x0e\xcd\xd9|\xa7\xa3T'
p1643
tp1644
Rp1645
g1625
F65.44924402236938
tp1646
a(F133464.0
g3
(g7
S'(\xaf\x84\xd6\xa1\x0e\xb3T'
p1647
tp1648
Rp1649
g1625
F65.49841117858887
tp1650
a(F39405.0
g3
(g7
S'\xf4P\xc4\xb5\xce\xf2\xa8T'
p1651
tp1652
Rp1653
g1625
F65.41308784484863
tp1654
a(F9037.0
g3
(g7
S'\x186\x1ax\xd1\x9c\xb7T'
p1655
tp1656
Rp1657
g1625
F65.70073318481445
tp1658
a(F6554.0
g3
(g7
S'\xe4\x17\xf8/b\xa0\xb8T'
p1659
tp1660
Rp1661
g1625
F65.75952315330505
tp1662
a(F9912.0
g3
(g7
S'\xab]\xa5\xe4K-\x9dT'
p1663
tp1664
Rp1665
g1625
F65.3669490814209
tp1666
a(F17830.0
g3
(g7
S'B\xbc\x14\t\x03\x1e\xaaT'
p1667
tp1668
Rp1669
g1625
F65.41397190093994
tp1670
a(F15668.0
g3
(g7
S'H0\xf1\x86U\xcc\xa9T'
p1671
tp1672
Rp1673
g1625
F65.47364211082458
tp1674
a(F4346.0
g3
(g7
S'/b\xa1q`\x04\xb6T'
p1675
tp1676
Rp1677
g1625
F65.44721007347107
tp1678
a(F18219.0
g3
(g7
S'2\xc0\x99R\xd5\x89\xbeT'
p1679
tp1680
Rp1681
g1625
F65.04039788246155
tp1682
a(F10459.0
g3
(g7
S'\xed\xcc\x7f\xe6\xb4\x00\xb2T'
p1683
tp1684
Rp1685
g1625
F65.6492760181427
tp1686
a(F15266.0
g3
(g7
S'I\xbd\xfb\x8cB\xc2\x8dT'
p1687
tp1688
Rp1689
g1625
F67.97920203208923
tp1690
a(F8698.0
g3
(g7
S'\x12\xa0\xea\x02\x17B\xbaT'
p1691
tp1692
Rp1693
g1625
F67.29888796806335
tp1694
a(F5381.0
g3
(g7
S'lt\x97\xa0\x8fm\xafT'
p1695
tp1696
Rp1697
g1625
F65.97574090957642
tp1698
a(F85890.0
g3
(g7
S'\x87\xf8\xbd\xb6\x81\x17\xbbT'
p1699
tp1700
Rp1701
g1625
F65.32416701316833
tp1702
a(F2726.0
g3
(g7
S')E\xefe\xfc1\xbbT'
p1703
tp1704
Rp1705
g1625
F67.04559707641602
tp1706
a(F2635.0
g3
(g7
S"\xf56\x08\x08'\x8d\xb2T"
p1707
tp1708
Rp1709
g1625
F66.53177905082703
tp1710
a(F8637.0
g3
(g7
S"\x9e\xf8\xf8'\x18#zT"
p1711
tp1712
Rp1713
g1625
F65.0901529788971
tp1714
a(F35498.0
g3
(g7
S'\xf1\x1e \xca\xf1\xe6\xa4T'
p1715
tp1716
Rp1717
g1625
F65.08926606178284
tp1718
a(F9732.0
g3
(g7
S'\xd4\x9a\x98\xe2\xd0\xbcxT'
p1719
tp1720
Rp1721
g1625
F65.09822416305542
tp1722
a(F21647.0
g3
(g7
S'\xb3\x19\xea=\xba\xf4\xb9T'
p1723
tp1724
Rp1725
g1625
F65.14360690116882
tp1726
a(F20338.0
g3
(g7
S'\xf8\xd0\xfd\xf9\x7f\x07\xb1T'
p1727
tp1728
Rp1729
g1625
F65.26329898834229
tp1730
a(F22704.0
g3
(g7
S'\xd9\xab\x17\xcdu\x8c\xb9T'
p1731
tp1732
Rp1733
g1625
F65.06061315536499
tp1734
a(F86371.0
g3
(g7
S'\xa4v2E_/\xbdT'
p1735
tp1736
Rp1737
g1625
F65.04725193977356
tp1738
a(F61725.0
g3
(g7
S'\xe3\x96\xf9\x9bCh\xb3T'
p1739
tp1740
Rp1741
g1625
F65.062903881073
tp1742
a(F11773.0
g3
(g7
S'\t\xc5\xae\xa1N\xac\xb3T'
p1743
tp1744
Rp1745
g1625
F65.03902792930603
tp1746
a(F3719.0
g3
(g7
S'\xfcpv\x0e\xfb\xf5\x80T'
p1747
tp1748
Rp1749
g1625
F65.03508400917053
tp1750
a(F15987.0
g3
(g7
S'\x8d\xe3\x00\x161\xf9\x95T'
p1751
tp1752
Rp1753
g1625
F65.75248312950134
tp1754
a(F166378.0
g3
(g7
S'\xe3\xc6\x00\x99,[\xa6T'
p1755
tp1756
Rp1757
g1625
F65.33685898780823
tp1758
a(F4261.0
g3
(g7
S'BO\xc7\xec\xbc\xc7\xbbT'
p1759
tp1760
Rp1761
g1625
F65.23144197463989
tp1762
a(F3267.0
g3
(g7
S't5\xe1u\x15\x83\xbcT'
p1763
tp1764
Rp1765
g1625
F65.19526815414429
tp1766
a(F16567.0
g3
(g7
S'\x92\xcb\x92\xa1\xba\x17HT'
p1767
tp1768
Rp1769
g1625
F65.15482497215271
tp1770
a(F4548.0
g3
(g7
S'\x95)\x8a\x12\x05\xa7\xb4T'
p1771
tp1772
Rp1773
g1625
F65.21719408035278
tp1774
a(F4686.0
g3
(g7
S')\xe3\x82\x83A\xf4gT'
p1775
tp1776
Rp1777
g1625
F65.23722791671753
tp1778
a(F13872.0
g3
(g7
S'\x82D\xb0\x8b\x90\x1d\xb7T'
p1779
tp1780
Rp1781
g1625
F65.20707607269287
tp1782
a(F5156.0
g3
(g7
S'x\xe0\xc2\xde\xa8\x84\x80T'
p1783
tp1784
Rp1785
g1625
F65.27733588218689
tp1786
a(F14149.0
g3
(g7
S'\xc9\xe4\x95\xf7\xd7R\xa6T'
p1787
tp1788
Rp1789
g1625
F65.22534108161926
tp1790
a(F5271.0
g3
(g7
S'8}\\$\xb2\xf1\xa0T'
p1791
tp1792
Rp1793
g1625
F65.25340104103088
tp1794
a(F13898.0
g3
(g7
S'\xf1Mp2\xa8\x07\xb6T'
p1795
tp1796
Rp1797
g1625
F65.29479694366455
tp1798
a(F5019.0
g3
(g7
S'\xe3\xc3\x897U\x1a\x98T'
p1799
tp1800
Rp1801
g1625
F65.29157209396362
tp1802
a(F47798.0
g3
(g7
S'\x83\xd2\xab\x040\xaf\xb4T'
p1803
tp1804
Rp1805
g1625
F65.24696588516235
tp1806
a(F3389.0
g3
(g7
S'\x115mp\xe0\xab\xbdT'
p1807
tp1808
Rp1809
g1625
F65.25300407409668
tp1810
a(F55033.0
g3
(g7
S'\xb1;5e\xccP\xb2T'
p1811
tp1812
Rp1813
g1625
F66.24081897735596
tp1814
a(F7407.0
g3
(g7
S'\x1b\xdd\x923\xf3\xe0\xb0T'
p1815
tp1816
Rp1817
g1625
F66.51005291938782
tp1818
a(F11455.0
g3
(g7
S'\xb9\xae\xf8#\xe8\x92\xa5T'
p1819
tp1820
Rp1821
g1625
F66.27259087562561
tp1822
a(F11309.0
g3
(g7
S'\x8d\xf0\xae\x8e\xc0)hT'
p1823
tp1824
Rp1825
g1625
F66.29357504844666
tp1826
a(F6436.0
g3
(g7
S'\xb4l\xbeH\xd6\x10\x16T'
p1827
tp1828
Rp1829
g1625
F67.06453490257263
tp1830
a(F6339.0
g3
(g7
S'\xce\xb90\xbf\x8c\xe2\xb4T'
p1831
tp1832
Rp1833
g1625
F65.94422507286072
tp1834
a(F1879.0
g3
(g7
S'\x0796\xe9\x86\xaa\x9fT'
p1835
tp1836
Rp1837
g1625
F66.32175612449646
tp1838
a(F8887.0
g3
(g7
S'B8\x9f\xddo$\xbeT'
p1839
tp1840
Rp1841
g1625
F65.37824511528015
tp1842
a(F25956.0
g3
(g7
S':\x86\xc5\xfel0\xadT'
p1843
tp1844
Rp1845
g1625
F65.16103887557983
tp1846
a(F13333.0
g3
(g7
S'6\x96?,f\xae\xbaT'
p1847
tp1848
Rp1849
g1625
F65.23372197151184
tp1850
a(F6893.0
g3
(g7
S'\x0e\xa9f\xc3\x15d\xa7T'
p1851
tp1852
Rp1853
g1625
F65.22118902206421
tp1854
a(F45504.0
g3
(g7
S'\x10\xfc\x12xQ$\xacT'
p1855
tp1856
Rp1857
g1625
F65.16330099105835
tp1858
a(F23317.0
g3
(g7
S'\xe6Z\x00\x8f\x1c\xdf\xaeT'
p1859
tp1860
Rp1861
g1625
F65.31786584854126
tp1862
a(F5459.0
g3
(g7
S'\x11\xb9k-\xb8$\x8bT'
p1863
tp1864
Rp1865
g1625
F65.21168684959412
tp1866
a(F3817.0
g3
(g7
S'o\x89\x96\x02AH\xb1T'
p1867
tp1868
Rp1869
g1625
F65.23976588249207
tp1870
a(F39202.0
g3
(g7
S'N\xa0-\xce\xa6g\xb2T'
p1871
tp1872
Rp1873
g1625
F65.4091649055481
tp1874
a(F7064.0
g3
(g7
S'\x8a\x14\x07(N\x06\xbaT'
p1875
tp1876
Rp1877
g1625
F66.65477085113525
tp1878
a(F5209.0
g3
(g7
S']\xf3\x8d\xc1\xadu\xbdT'
p1879
tp1880
Rp1881
g1625
F66.30894589424133
tp1882
a(F10027.0
g3
(g7
S'H)\x9d\xac \xcc\x90T'
p1883
tp1884
Rp1885
g1625
F67.09420585632324
tp1886
a(F19226.0
g3
(g7
S'WZh\x1c\xcc\xdc\x96T'
p1887
tp1888
Rp1889
g1625
F66.54665398597717
tp1890
a(F7903.0
g3
(g7
S'-\xce\xbe\x95\xc2\x97zT'
p1891
tp1892
Rp1893
g1625
F66.18065309524536
tp1894
a(F11141.0
g3
(g7
S'\xc1\x18"\xf5.\x81\xadT'
p1895
tp1896
Rp1897
g1625
F66.77806806564331
tp1898
a(F3446.0
g3
(g7
S'\xe7\xc1*i\xd9}\xbbT'
p1899
tp1900
Rp1901
g1625
F66.44391584396362
tp1902
a(F11401.0
g3
(g7
S'`\xc4\xef|\x13j\xb8T'
p1903
tp1904
Rp1905
g1625
F66.2251660823822
tp1906
a(F5108.0
g3
(g7
S'\xb2\xa4\x81a\xdc\xb5\xbaT'
p1907
tp1908
Rp1909
g1625
F65.8561339378357
tp1910
a(F26546.0
g3
(g7
S'\xb8\x0f?\xa0\xd1\xf0\xbcT'
p1911
tp1912
Rp1913
g1625
F66.37557005882263
tp1914
a(F14056.0
g3
(g7
S'f\xcc\x9f\xbbo\x0f\xb0T'
p1915
tp1916
Rp1917
g1625
F66.18391489982605
tp1918
a(F3815.0
g3
(g7
S'\x92-\xcf\xfd/\xcf\x97T'
p1919
tp1920
Rp1921
g1625
F65.26484298706055
tp1922
a(F15119.0
g3
(g7
S'@\x93\x92\x7f~$\xbbT'
p1923
tp1924
Rp1925
g1625
F65.27199602127075
tp1926
a(F12881.0
g3
(g7
S' *\xbf\xe2\xd9\xdd\x9dT'
p1927
tp1928
Rp1929
g1625
F65.29088807106018
tp1930
a(F6678.0
g3
(g7
S'\xa7\xc9\xc8\xa7\xee\xaf\x85T'
p1931
tp1932
Rp1933
g1625
F66.56268119812012
tp1934
a(F5586.0
g3
(g7
S'\xb3Y,<0_\xbeT'
p1935
tp1936
Rp1937
g1625
F66.87363290786743
tp1938
a(F4154.0
g3
(g7
S']\x05Y\x18\xacE\xbcT'
p1939
tp1940
Rp1941
g1625
F66.2853729724884
tp1942
a(F2917.0
g3
(g7
S'\x02\x03\x82$\xd1E\xacT'
p1943
tp1944
Rp1945
g1625
F66.26319789886475
tp1946
a(F2792.0
g3
(g7
S'[X\x1fYR\xa0\xbeT'
p1947
tp1948
Rp1949
g1625
F66.36332583427429
tp1950
a(F7049.0
g3
(g7
S'XC)\x87!`\xa4T'
p1951
tp1952
Rp1953
g1625
F66.81864213943481
tp1954
a(F50879.0
g3
(g7
S'\x97b:\x9fi\x7f\xb2T'
p1955
tp1956
Rp1957
g1625
F66.48729491233826
tp1958
a(F3534.0
g3
(g7
S'\x85\xfa3\xb3\x10A\x8aT'
p1959
tp1960
Rp1961
g1625
F67.67157316207886
tp1962
a(F7182.0
g3
(g7
S'%vo\xea\xa1\xab\x93T'
p1963
tp1964
Rp1965
g1625
F67.98423910140991
tp1966
a(F4642.0
g3
(g7
S'\xbc\xedhYe\xb5\xbeT'
p1967
tp1968
Rp1969
g1625
F67.24181699752808
tp1970
a(F5643.0
g3
(g7
S'\x94^\x7f\x01}\x0c\xa1T'
p1971
tp1972
Rp1973
g1625
F65.31747698783875
tp1974
a(F3769.0
g3
(g7
S')C\x1d\xa4\t\x07\xb8T'
p1975
tp1976
Rp1977
g1625
F66.10878801345825
tp1978
a(F2128.0
g3
(g7
S'{\xa5\x1f\xdd\xf4\x14\xbdT'
p1979
tp1980
Rp1981
g1625
F66.63682699203491
tp1982
a(F10083.0
g3
(g7
S"\xb5^'\xaf\x1c\x9b\x92T"
p1983
tp1984
Rp1985
g1625
F68.02222299575806
tp1986
a(F82623.0
g3
(g7
S'x\xb9X\x12\xd8\x07\x9cT'
p1987
tp1988
Rp1989
g1625
F66.95176696777344
tp1990
a(F9849.0
g3
(g7
S'@\xfa\x96s\xf3t\xa1T'
p1991
tp1992
Rp1993
g1625
F66.95660209655762
tp1994
a(F34456.0
g3
(g7
S'\xfb\xeek\xf1\xf0\x9b\xb8T'
p1995
tp1996
Rp1997
g1625
F68.1277379989624
tp1998
a(F4577.0
g3
(g7
S'\xceD\xed\x17\x835\xa7T'
p1999
tp2000
Rp2001
g1625
F76.45098114013672
tp2002
a(F26006.0
g3
(g7
S'\x92\xc9\x8b\xd4|D\xb9T'
p2003
tp2004
Rp2005
g1625
F74.68564486503601
tp2006
a(F14102.0
g3
(g7
S'\x93v*v;\xe1\x88T'
p2007
tp2008
Rp2009
g1625
F76.17543911933899
tp2010
a(F12313.0
g3
(g7
S'\x07b\x18t\xdcl\xa5T'
p2011
tp2012
Rp2013
g1625
F67.89565205574036
tp2014
a(F6193.0
g3
(g7
S'\xcd\x8a\xce\xcd(\x90WT'
p2015
tp2016
Rp2017
g1625
F70.11923599243164
tp2018
a(F4337.0
g3
(g7
S'\xb6\x93\xd0`Y\x01\x9dT'
p2019
tp2020
Rp2021
g1625
F67.63837695121765
tp2022
aaI65
aI334
aF0.46584296226501465
aa(lp2023
(lp2024
(F5.0
g3
(g7
S'\xe8K\xca\xcd\xe8\x88\xe2?'
p2025
tp2026
Rp2027
(lp2028
I0
aI700
aF7.845458030700684
tp2029
a(F231.0
g3
(g7
S'\x08\x083\x10C\xc7\xe0?'
p2030
tp2031
Rp2032
g2028
F8.586289167404175
tp2033
a(F5.0
g3
(g7
S'\xecY?\x9a\xdf\xa3\xe1?'
p2034
tp2035
Rp2036
g2028
F5.174666881561279
tp2037
a(F3.0
g3
(g7
S'\x04\x0cW\xf9\xecp\x80@'
p2038
tp2039
Rp2040
g2028
F6.29674506187439
tp2041
a(F64.0
g3
(g7
S'\xd4m\xa8\x88\xc0\xb6\xe0?'
p2042
tp2043
Rp2044
g2028
F8.08391284942627
tp2045
a(F44.0
g3
(g7
S'\\T\xd4i\n\xd3\xe0?'
p2046
tp2047
Rp2048
g2028
F7.748356103897095
tp2049
a(F3.0
g3
(g7
S'\xe4P\x93?\x06[\x7f@'
p2050
tp2051
Rp2052
g2028
F5.292224884033203
tp2053
a(F11.0
g3
(g7
S'\xa0\xf1I\x98\xf7x\xe1?'
p2054
tp2055
Rp2056
g2028
F5.211047887802124
tp2057
a(F26.0
g3
(g7
S'\x84y\xb1T\xa1\xf9\xe0?'
p2058
tp2059
Rp2060
g2028
F5.347121953964233
tp2061
a(F4.0
g3
(g7
S'\xc0\xe0@o\x193\xe2?'
p2062
tp2063
Rp2064
g2028
F5.210223913192749
tp2065
a(F25.0
g3
(g7
S'4\x90\xbb\x0e\x8e\xfa\xe0?'
p2066
tp2067
Rp2068
g2028
F5.258558034896851
tp2069
a(F3.0
g3
(g7
S'\x1aa\x1c\x96^_\x81@'
p2070
tp2071
Rp2072
g2028
F5.261674165725708
tp2073
a(F15.0
g3
(g7
S'T\x975V\xf9\xfb\xe0?'
p2074
tp2075
Rp2076
g2028
F5.1784350872039795
tp2077
a(F11.0
g3
(g7
S'\xf0\xf8p\x9b\xc5\xfc\xe0?'
p2078
tp2079
Rp2080
g2028
F5.16159200668335
tp2081
a(F11.0
g3
(g7
S' \xd3L\xaf\x95\x87\xe1?'
p2082
tp2083
Rp2084
g2028
F5.135724067687988
tp2085
a(F133.0
g3
(g7
S'\x8c|\x9c\xcd\xec\xc1\xe0?'
p2086
tp2087
Rp2088
g2028
F5.254726886749268
tp2089
a(F7.0
g3
(g7
S'`\x84m\xaa\xe8d\xe0?'
p2090
tp2091
Rp2092
g2028
F5.314258098602295
tp2093
a(F7.0
g3
(g7
S'\xa8\x02\xb84\x10R\xe0?'
p2094
tp2095
Rp2096
g2028
F6.913612127304077
tp2097
a(F8.0
g3
(g7
S'\xd0/<^\x9c+\xe1?'
p2098
tp2099
Rp2100
g2028
F5.582494020462036
tp2101
a(F122.0
g3
(g7
S'L\x11\x0fs\x02\xcc\xe0?'
p2102
tp2103
Rp2104
g2028
F5.945230960845947
tp2105
a(F21.0
g3
(g7
S'\x8cZ\xf9\xba\x97q\xe0?'
p2106
tp2107
Rp2108
g2028
F6.798290967941284
tp2109
a(F60.0
g3
(g7
S'0r\x8a]\xae\xd4\xe0?'
p2110
tp2111
Rp2112
g2028
F5.27736496925354
tp2113
a(F5.0
g3
(g7
S'hF\x8c\xabP\xae\xf0?'
p2114
tp2115
Rp2116
g2028
F5.380034923553467
tp2117
a(F12.0
g3
(g7
S'l\x82~\xb0\x04|\xe1?'
p2118
tp2119
Rp2120
g2028
F5.584812164306641
tp2121
a(F12.0
g3
(g7
S'\x94\x7fB\xf4^\xf0\xe0?'
p2122
tp2123
Rp2124
g2028
F5.702369928359985
tp2125
a(F11.0
g3
(g7
S't\x8b\xf1\x97S\r\xe1?'
p2126
tp2127
Rp2128
g2028
F5.2970240116119385
tp2129
a(F3.0
g3
(g7
S'~pS\x08Z\x91\x7f@'
p2130
tp2131
Rp2132
g2028
F5.338006019592285
tp2133
a(F190.0
g3
(g7
S'\xe8\xafw\xc2\xc5\xc5\xe0?'
p2134
tp2135
Rp2136
g2028
F5.275429010391235
tp2137
a(F3.0
g3
(g7
S'\x7f\xb7%$\xf0\xd2\x83@'
p2138
tp2139
Rp2140
g2028
F5.291515827178955
tp2141
a(F20.0
g3
(g7
S'p\xa28G\xa4c\xe0?'
p2142
tp2143
Rp2144
g2028
F5.298233985900879
tp2145
a(F12.0
g3
(g7
S'\xd8\x8d-\x9d k\xe1?'
p2146
tp2147
Rp2148
g2028
F5.293068885803223
tp2149
a(F12.0
g3
(g7
S'TaG\xf2\x90\xba\xe0?'
p2150
tp2151
Rp2152
g2028
F5.26065993309021
tp2153
a(F7.0
g3
(g7
S'\xa4\xaa\xb6\xb0I\xa9\xe0?'
p2154
tp2155
Rp2156
g2028
F5.120444059371948
tp2157
a(F106.0
g3
(g7
S'\x9cT+,\x00\xc0\xe0?'
p2158
tp2159
Rp2160
g2028
F5.075979948043823
tp2161
a(F13.0
g3
(g7
S'l\xb6\xa4\xaeB\xff\xe0?'
p2162
tp2163
Rp2164
g2028
F5.071824073791504
tp2165
a(F43.0
g3
(g7
S'\x80\xb6\xd4\x8fy\x94\xe0?'
p2166
tp2167
Rp2168
g2028
F5.06566596031189
tp2169
a(F4.0
g3
(g7
S'\x80\xa7\x94\xffr[\xf1?'
p2170
tp2171
Rp2172
g2028
F5.0548529624938965
tp2173
a(F3.0
g3
(g7
S'&O\x930\xd7\xc4}@'
p2174
tp2175
Rp2176
g2028
F5.1269261837005615
tp2177
a(F4.0
g3
(g7
S'|\x00\x9dP\xc4\x91\xe2?'
p2178
tp2179
Rp2180
g2028
F5.194025039672852
tp2181
a(F222.0
g3
(g7
S'\xe8;<^7\xc7\xe0?'
p2182
tp2183
Rp2184
g2028
F5.07785177230835
tp2185
a(F13.0
g3
(g7
S'\\\x892;g\x02\xe1?'
p2186
tp2187
Rp2188
g2028
F5.125840902328491
tp2189
a(F5.0
g3
(g7
S'H\x1d*3\xd2\x08\xe2?'
p2190
tp2191
Rp2192
g2028
F5.141779184341431
tp2193
a(F24.0
g3
(g7
S'\x8cX\xa1y\xef\x87\xe0?'
p2194
tp2195
Rp2196
g2028
F5.135094165802002
tp2197
a(F5.0
g3
(g7
S'\x10g\x8aBx\x97\xe0?'
p2198
tp2199
Rp2200
g2028
F5.080589056015015
tp2201
a(F20.0
g3
(g7
S'\x94\x88\xe6\x9b\x8b\x05\xe1?'
p2202
tp2203
Rp2204
g2028
F5.303538084030151
tp2205
a(F21.0
g3
(g7
S'\xfc\x16t\xa7 \x96\xe0?'
p2206
tp2207
Rp2208
g2028
F5.166692018508911
tp2209
a(F3.0
g3
(g7
S'\xfd\xf3\x89Mj\x04~@'
p2210
tp2211
Rp2212
g2028
F5.10574197769165
tp2213
a(F5.0
g3
(g7
S'\xd0Ti\x83\x9f\xf6\xe1?'
p2214
tp2215
Rp2216
g2028
F5.1301538944244385
tp2217
a(F39.0
g3
(g7
S'\xf0\xe19:\xce\xe9\xe0?'
p2218
tp2219
Rp2220
g2028
F5.063022136688232
tp2221
a(F51.0
g3
(g7
S'@\x7fP/\x97\xc8\xe0?'
p2222
tp2223
Rp2224
g2028
F5.158570051193237
tp2225
a(F5.0
g3
(g7
S'\xe8\x0b\xad\xa9Ag\xe1?'
p2226
tp2227
Rp2228
g2028
F5.099441051483154
tp2229
a(F3.0
g3
(g7
S's1\xe1F~~~@'
p2230
tp2231
Rp2232
g2028
F5.115817070007324
tp2233
a(F9.0
g3
(g7
S'\xfc+P\x99L\xa4\xe1?'
p2234
tp2235
Rp2236
g2028
F5.082159996032715
tp2237
a(F4.0
g3
(g7
S'l?D1@\\\xe0?'
p2238
tp2239
Rp2240
g2028
F5.091417074203491
tp2241
a(F9.0
g3
(g7
S'T[\x8a\xb5\x82\x82\xe0?'
p2242
tp2243
Rp2244
g2028
F5.2132580280303955
tp2245
a(F13.0
g3
(g7
S',\x10\x1f\xaa\x0c_\xe1?'
p2246
tp2247
Rp2248
g2028
F5.154544115066528
tp2249
a(F19.0
g3
(g7
S'\x18e\xab*\x1f\xf5\xe0?'
p2250
tp2251
Rp2252
g2028
F5.10216212272644
tp2253
a(F4.0
g3
(g7
S'H\xa8\x1c\x84\xfc\x80\xde?'
p2254
tp2255
Rp2256
g2028
F5.155452013015747
tp2257
a(F4.0
g3
(g7
S'L^\xcc;S\xe3\xe1?'
p2258
tp2259
Rp2260
g2028
F5.189868927001953
tp2261
a(F7.0
g3
(g7
S'\x9c;\xa9\x11\xa2\xec\xe0?'
p2262
tp2263
Rp2264
g2028
F5.1721320152282715
tp2265
a(F17.0
g3
(g7
S'\xa0#\x1f\xca\xf7\xe0\xe0?'
p2266
tp2267
Rp2268
g2028
F5.215660095214844
tp2269
a(F20.0
g3
(g7
S'\\ \xa2->t\xe0?'
p2270
tp2271
Rp2272
g2028
F5.120805025100708
tp2273
a(F28.0
g3
(g7
S'\xd4\xa6\xe5\x8c\x1c\xf9\xe0?'
p2274
tp2275
Rp2276
g2028
F5.138580083847046
tp2277
a(F6.0
g3
(g7
S'\x8c\xfcPQe|\xe1?'
p2278
tp2279
Rp2280
g2028
F5.144057035446167
tp2281
a(F6.0
g3
(g7
S'4\x15\xb9\xddpa\xe1?'
p2282
tp2283
Rp2284
g2028
F5.072932004928589
tp2285
a(F63.0
g3
(g7
S'D\xcdk\xb3V\xb8\xe0?'
p2286
tp2287
Rp2288
g2028
F5.050533056259155
tp2289
a(F4.0
g3
(g7
S'\x00\xaeF]\xf4\xdb\xde?'
p2290
tp2291
Rp2292
g2028
F5.0674519538879395
tp2293
a(F65.0
g3
(g7
S'0\xb8\xbd\xc2B\xb7\xe0?'
p2294
tp2295
Rp2296
g2028
F5.041198968887329
tp2297
a(F23.0
g3
(g7
S'\x0c.\xa1\xe7h\xbe\xe0?'
p2298
tp2299
Rp2300
g2028
F5.045392036437988
tp2301
a(F71.0
g3
(g7
S'(\xb1\x9e\xf8\x13\xde\xe0?'
p2302
tp2303
Rp2304
g2028
F5.026528835296631
tp2305
a(F7.0
g3
(g7
S'\xc0\xea\xb50\xc9\xee\xdf?'
p2306
tp2307
Rp2308
g2028
F5.0576488971710205
tp2309
a(F3.0
g3
(g7
S'f\x11d!\xae\xc9\x80@'
p2310
tp2311
Rp2312
g2028
F5.0444560050964355
tp2313
a(F10.0
g3
(g7
S'\x0c\xa3W\x17\xc40\xe0?'
p2314
tp2315
Rp2316
g2028
F5.1123950481414795
tp2317
a(F4.0
g3
(g7
S'\xf4\x83\x88W\xe0\x91\xe2?'
p2318
tp2319
Rp2320
g2028
F5.066382169723511
tp2321
a(F3.0
g3
(g7
S'14\x93\xb3\x00\xf9~@'
p2322
tp2323
Rp2324
g2028
F5.086165189743042
tp2325
a(F3.0
g3
(g7
S'\xb4\xed\x8e\x94\xc0\xb5~@'
p2326
tp2327
Rp2328
g2028
F5.063939094543457
tp2329
a(F3.0
g3
(g7
S'\x9c\xbf\xa4\xd2\xd9%|@'
p2330
tp2331
Rp2332
g2028
F5.118429183959961
tp2333
a(F14.0
g3
(g7
S'\xdc.\x11-\x17]\xe0?'
p2334
tp2335
Rp2336
g2028
F5.076304912567139
tp2337
a(F3.0
g3
(g7
S'\xe1\x0b\xdeu\xf7\xee{@'
p2338
tp2339
Rp2340
g2028
F5.03199315071106
tp2341
a(F11.0
g3
(g7
S'\xdc\x86iN\xb1\x1d\xe1?'
p2342
tp2343
Rp2344
g2028
F5.053277015686035
tp2345
a(F111.0
g3
(g7
S'\xf42\xd9V\xa3\xc7\xe0?'
p2346
tp2347
Rp2348
g2028
F5.068712949752808
tp2349
a(F47.0
g3
(g7
S'\xc4\xe5\x0b\xf2\x9e\xf8\xe0?'
p2350
tp2351
Rp2352
g2028
F5.040244102478027
tp2353
a(F3.0
g3
(g7
S'\xa2\xdb\x88\x99\x1a\xd6\x7f@'
p2354
tp2355
Rp2356
g2028
F5.049934148788452
tp2357
a(F6.0
g3
(g7
S'L2\n\xcb\xd2\x1d\xe1?'
p2358
tp2359
Rp2360
g2028
F5.037083864212036
tp2361
a(F295.0
g3
(g7
S'`\xbc}\x87\xa9\xc4\xe0?'
p2362
tp2363
Rp2364
g2028
F5.089327096939087
tp2365
a(F5.0
g3
(g7
S'\xa84\xb8\xd4\xc9\xfd\xde?'
p2366
tp2367
Rp2368
g2028
F5.106535196304321
tp2369
a(F3.0
g3
(g7
S'\x1d$\x7f_6s~@'
p2370
tp2371
Rp2372
g2028
F5.059311866760254
tp2373
a(F38.0
g3
(g7
S'\xe4\xcc\xcf\x83\xc1\xc9\xe0?'
p2374
tp2375
Rp2376
g2028
F5.050364971160889
tp2377
a(F3.0
g3
(g7
S'y\xe1\x12C\xd6\xfa\x81@'
p2378
tp2379
Rp2380
g2028
F5.0217320919036865
tp2381
a(F3.0
g3
(g7
S'(_l\xf6\xdeC~@'
p2382
tp2383
Rp2384
g2028
F5.069432973861694
tp2385
a(F3.0
g3
(g7
S'\xb0q\xd0C\x9c\xd6\x7f@'
p2386
tp2387
Rp2388
g2028
F5.031933069229126
tp2389
a(F8.0
g3
(g7
S'\xc4\xa6\xe8\x85?g\xe1?'
p2390
tp2391
Rp2392
g2028
F5.024251937866211
tp2393
a(F7.0
g3
(g7
S'\x00\xbb\xc5T\x7fI\xe1?'
p2394
tp2395
Rp2396
g2028
F5.084160089492798
tp2397
a(F4.0
g3
(g7
S'L\xfc\xe7\xf0\x7fW\xe1?'
p2398
tp2399
Rp2400
g2028
F5.014338970184326
tp2401
a(F18.0
g3
(g7
S'\xbcLk\x0e\xb3\x13\xe1?'
p2402
tp2403
Rp2404
g2028
F5.02896785736084
tp2405
a(F11.0
g3
(g7
S'\xdc\x1c\x1bV\xeex\xe0?'
p2406
tp2407
Rp2408
g2028
F5.0636680126190186
tp2409
a(F133.0
g3
(g7
S',g\xd9&\x8c\xcf\xe0?'
p2410
tp2411
Rp2412
g2028
F5.14510703086853
tp2413
a(F14.0
g3
(g7
S'P8\xe0\x8as\x14\xe1?'
p2414
tp2415
Rp2416
g2028
F5.1026928424835205
tp2417
a(F8.0
g3
(g7
S'd\xcf\r\xb2Gc\xe1?'
p2418
tp2419
Rp2420
g2028
F5.139925003051758
tp2421
a(F6.0
g3
(g7
S'\x90*\x9f\x0c\x00\xe3\xdf?'
p2422
tp2423
Rp2424
g2028
F5.146836996078491
tp2425
aaI7
aI11
aF0.112274169921875
aa.