(lp0
(lp1
(lp2
(F708485683530085.0
cnumpy.core.multiarray
scalar
p3
(cnumpy
dtype
p4
(S'f8'
p5
I0
I1
tp6
Rp7
(I3
S'<'
p8
NNNI-1
I-1
I0
tp9
bS'm\x10\xb0\x83\xebw!\xc1'
p10
tp11
Rp12
(lp13
F-823549.6645
aI102
aF76.619558095932
tp14
a(F17706595566776.0
g3
(g7
S'T\x10(\xa2]$\x0c\xc1'
p15
tp16
Rp17
g13
F76.59108304977417
tp18
a(F10769264915986.0
g3
(g7
S'\x1a\xbc\x98l\xe3/\x1a\xc1'
p19
tp20
Rp21
g13
F76.5663549900055
tp22
a(F12061665031186.0
g3
(g7
S'\xa4LR\xd6d\x07%\xc1'
p23
tp24
Rp25
g13
F76.44762110710144
tp26
a(F54199509571769.0
g3
(g7
S'\xac\x8f\xbe\x13\xc1\x9f!\xc1'
p27
tp28
Rp29
g13
F76.29621982574463
tp30
a(F24213815517733.0
g3
(g7
S'\x10\\\x1e&\xb4c%\xc1'
p31
tp32
Rp33
g13
F76.39195895195007
tp34
a(F108929311187070.0
g3
(g7
S'\xac\xab\x8e\x83\xb4\xc6 \xc1'
p35
tp36
Rp37
g13
F76.44577121734619
tp38
a(F68344068228698.0
g3
(g7
S'n\xa2\xe4\x83\xe9\n(\xc1'
p39
tp40
Rp41
g13
F76.38709712028503
tp42
a(F21241180498335.0
g3
(g7
S'\xc21>0`\xbd$\xc1'
p43
tp44
Rp45
g13
F76.37632203102112
tp46
a(F6095725558897.0
g3
(g7
S'nq\x8b\xfaG\x04%\xc1'
p47
tp48
Rp49
g13
F76.46530294418335
tp50
a(F16056749716991.0
g3
(g7
S'6:\xdc\x16\xcaJ$\xc1'
p51
tp52
Rp53
g13
F76.4076759815216
tp54
a(F11786141144790.0
g3
(g7
S'Z\xfd\x13\\Z;&\xc1'
p55
tp56
Rp57
g13
F76.45376110076904
tp58
a(F131275591309840.0
g3
(g7
S'\xb4\xf3\x01\x18d\xa9\x0e\xc1'
p59
tp60
Rp61
g13
F76.42299222946167
tp62
a(F40368144055394.0
g3
(g7
S'\xac\x83\x06U?y\x17\xc1'
p63
tp64
Rp65
g13
F76.58873581886292
tp66
a(F8520532703200.0
g3
(g7
S"\x03\x1b\xefH\x1e\xd2'\xc1"
p67
tp68
Rp69
g13
F76.58015084266663
tp70
a(F7581629976809.0
g3
(g7
S'Y\x08\xe5\xa4`\xde\x18\xc1'
p71
tp72
Rp73
g13
F76.44951605796814
tp74
a(F10426861039506.0
g3
(g7
S'\x1a\xd9\xf0\x86\x99\x07 \xc1'
p75
tp76
Rp77
g13
F76.40827298164368
tp78
a(F19343875050739.0
g3
(g7
S'\x94\x85K\xa2\x1b*\x1c\xc1'
p79
tp80
Rp81
g13
F76.36697196960449
tp82
a(F106375717187812.0
g3
(g7
S'\x08\x03e4\x95.$\xc1'
p83
tp84
Rp85
g13
F76.38258290290833
tp86
a(F15112848622223.0
g3
(g7
S'\xbe\xd1=.\xfd\x87&\xc1'
p87
tp88
Rp89
g13
F76.36800193786621
tp90
a(F110064002213538.0
g3
(g7
S'\xfd\xe5\xd9\xe2\xcd\x9c\x17\xc1'
p91
tp92
Rp93
g13
F76.46472716331482
tp94
a(F15808728970872.0
g3
(g7
S'f\xdd}\xfe\xa4\xcc\x1a\xc1'
p95
tp96
Rp97
g13
F76.16345596313477
tp98
a(F76649846021712.0
g3
(g7
S'\xd2\x01\xdb\x12G\xe5&\xc1'
p99
tp100
Rp101
g13
F76.19279289245605
tp102
a(F10646619838499.0
g3
(g7
S'\x87\x85(M\x04\x10\x15\xc1'
p103
tp104
Rp105
g13
F76.2051191329956
tp106
a(F19790394108308.0
g3
(g7
S'\xc4\x8d\xbf\xf1\x89l\x00\xc1'
p107
tp108
Rp109
g13
F76.25117707252502
tp110
a(F28444609360387.0
g3
(g7
S'2\x8f\x96\xc8\x0e\xcd!\xc1'
p111
tp112
Rp113
g13
F76.17876720428467
tp114
a(F2390733027870.0
g3
(g7
S'\xaf0\x81\x1e\x01\xb9(\xc1'
p115
tp116
Rp117
g13
F76.17467284202576
tp118
a(F8241117707387.0
g3
(g7
S'\x1fR\xb6~P\xc7&\xc1'
p119
tp120
Rp121
g13
F76.2464988231659
tp122
a(F33682211451071.0
g3
(g7
S'\xb4IWh\xd6\xc6\x1f\xc1'
p123
tp124
Rp125
g13
F76.2284209728241
tp126
a(F102905908571766.0
g3
(g7
S'(\x87\xb0\xe2\xe7\xe2 \xc1'
p127
tp128
Rp129
g13
F76.15596103668213
tp130
a(F79041669529915.0
g3
(g7
S'X\x12y\x1a\x9f\x8a%\xc1'
p131
tp132
Rp133
g13
F76.17711997032166
tp134
a(F17040599280017.0
g3
(g7
S'4\xc9\xa1\xe0\x15\x89&\xc1'
p135
tp136
Rp137
g13
F76.13212990760803
tp138
a(F19753962944531.0
g3
(g7
S'\xbc\x05\x83W\x84\xa6 \xc1'
p139
tp140
Rp141
g13
F76.15207195281982
tp142
a(F72715827644850.0
g3
(g7
S'/z{4\xb6\xe1&\xc1'
p143
tp144
Rp145
g13
F76.22633790969849
tp146
a(F31288260671976.0
g3
(g7
S'\x99\x85Eq$k(\xc1'
p147
tp148
Rp149
g13
F76.19053196907043
tp150
a(F10443053006991.0
g3
(g7
S'6\xe82~\x1d\xf2&\xc1'
p151
tp152
Rp153
g13
F76.17422080039978
tp154
a(F27708713419760.0
g3
(g7
S'\xc8l\xe2\xad,\x9b#\xc1'
p155
tp156
Rp157
g13
F76.23125386238098
tp158
a(F17153160822863.0
g3
(g7
S'\x987a\xa3Zo&\xc1'
p159
tp160
Rp161
g13
F76.22327613830566
tp162
a(F5262373360033.0
g3
(g7
S'Bf\xf6\xc4@Z(\xc1'
p163
tp164
Rp165
g13
F76.2154471874237
tp166
a(F15473652249936.0
g3
(g7
S'\xda\xff\x86-\xa7\xcb\x1e\xc1'
p167
tp168
Rp169
g13
F76.1557400226593
tp170
a(F87350226409202.0
g3
(g7
S'\xfcF\x1d\x99Vw\x05\xc1'
p171
tp172
Rp173
g13
F76.32711601257324
tp174
a(F30552452398670.0
g3
(g7
S'\xfa\x9d\x8b9\x00o$\xc1'
p175
tp176
Rp177
g13
F76.4097101688385
tp178
a(F9391994696540.0
g3
(g7
S'\xbb\xc4\x07\x1b\x08\x8d%\xc1'
p179
tp180
Rp181
g13
F76.56972908973694
tp182
a(F89553105067526.0
g3
(g7
S'\xa3\x1e\xf2@\xfb\x1e)\xc1'
p183
tp184
Rp185
g13
F76.50594592094421
tp186
a(F18954093814284.0
g3
(g7
S'Y\xebfdc&\x1a\xc1'
p187
tp188
Rp189
g13
F76.46413707733154
tp190
a(F4968119494774.0
g3
(g7
S'&Y\xd5C\x83o&\xc1'
p191
tp192
Rp193
g13
F76.41326093673706
tp194
a(F193051478054634.0
g3
(g7
S'\xedm)\x016\xbc\x13\xc1'
p195
tp196
Rp197
g13
F76.43496203422546
tp198
a(F93867184749050.0
g3
(g7
S'\xae\x94\xb4N\xe8\xb2"\xc1'
p199
tp200
Rp201
g13
F76.14471292495728
tp202
a(F31280483962857.0
g3
(g7
S'\xf5\xb9\x82q{\xf7&\xc1'
p203
tp204
Rp205
g13
F76.1278190612793
tp206
a(F11235894981034.0
g3
(g7
S'\xcc~\x8c\xd25\xa4\x1c\xc1'
p207
tp208
Rp209
g13
F76.18773984909058
tp210
a(F314565079426641.0
g3
(g7
S'\xb4\xfa\xe3\x96\x13\x97(\xc1'
p211
tp212
Rp213
g13
F76.25136995315552
tp214
a(F55673493532954.0
g3
(g7
S'\x18(;\xbf\xe9\r!\xc1'
p215
tp216
Rp217
g13
F76.1592128276825
tp218
a(F13433735491525.0
g3
(g7
S'\x19\xd3\xc8\xa0\x8f\xcf%\xc1'
p219
tp220
Rp221
g13
F76.15543913841248
tp222
a(F7937005879142.0
g3
(g7
S'Z\xb4\xac\xe8@\xd8%\xc1'
p223
tp224
Rp225
g13
F76.18752813339233
tp226
a(F87936919140301.0
g3
(g7
S'\xb40\n\xa2\xa3p\x13\xc1'
p227
tp228
Rp229
g13
F76.14851307868958
tp230
a(F8842212404425.0
g3
(g7
S'\xf3\x15Yqp\xca\x18\xc1'
p231
tp232
Rp233
g13
F76.21669816970825
tp234
a(F86850583249634.0
g3
(g7
S"\xe2\xaen\x05Z\x05'\xc1"
p235
tp236
Rp237
g13
F76.18883204460144
tp238
a(F23595716146053.0
g3
(g7
S"\xa6A\x85d\xcfI'\xc1"
p239
tp240
Rp241
g13
F76.16730618476868
tp242
a(F112963140065456.0
g3
(g7
S'c\x01\xf7~N3%\xc1'
p243
tp244
Rp245
g13
F76.12137699127197
tp246
a(F6782731707452.0
g3
(g7
S'\xf8e\x85`q\xaa\n\xc1'
p247
tp248
Rp249
g13
F76.19859981536865
tp250
a(F34774890048462.0
g3
(g7
S'\x0ck\x81m h\x06\xc1'
p251
tp252
Rp253
g13
F76.27052998542786
tp254
a(F4284154331688.0
g3
(g7
S'\x84\x87\xc6\xb5\xa5\x86\x1c\xc1'
p255
tp256
Rp257
g13
F76.24338889122009
tp258
a(F6993728029149.0
g3
(g7
S'\x8dW\xa9\xc9\xaaP\x1f\xc1'
p259
tp260
Rp261
g13
F76.26601600646973
tp262
a(F96430604526424.0
g3
(g7
S'\xc6fH\xb2Z\xe6"\xc1'
p263
tp264
Rp265
g13
F76.19123411178589
tp266
a(F41299364376870.0
g3
(g7
S'\xb3\xaf\x15\tX\x10)\xc1'
p267
tp268
Rp269
g13
F76.2640209197998
tp270
a(F25027594141673.0
g3
(g7
S'g\xc9\x85\x81t\x12\x13\xc1'
p271
tp272
Rp273
g13
F76.17272710800171
tp274
a(F15404977531148.0
g3
(g7
S'\xdf\xbd\xbe`\x88\x1f"\xc1'
p275
tp276
Rp277
g13
F76.18545413017273
tp278
a(F3690006476661913.0
g3
(g7
S"*Y)'k\xa5#\xc1"
p279
tp280
Rp281
g13
F76.18455410003662
tp282
a(F70031353234582.0
g3
(g7
S'\x10\xdc\xcc\x9a\xa8\xd6\x1a\xc1'
p283
tp284
Rp285
g13
F76.32920289039612
tp286
a(F26833548924995.0
g3
(g7
S'\x83L\xee-`\xad"\xc1'
p287
tp288
Rp289
g13
F76.20884609222412
tp290
a(F36405313837252.0
g3
(g7
S"\xf5\xbf\x17\xa7\x14I'\xc1"
p291
tp292
Rp293
g13
F76.17663908004761
tp294
a(F7413192362626.0
g3
(g7
S'H\xf5\x0f\x9f\x0f\x1d(\xc1'
p295
tp296
Rp297
g13
F76.20948886871338
tp298
a(F40929508428730.0
g3
(g7
S'\xe3\xe8 \x07:\xb1%\xc1'
p299
tp300
Rp301
g13
F76.15403509140015
tp302
a(F460148919170109.0
g3
(g7
S'\xfc\xd5\xf6Y\x00\xb2"\xc1'
p303
tp304
Rp305
g13
F76.15851306915283
tp306
a(F371586766860948.0
g3
(g7
S"\r\x9bO\xb3\x98f'\xc1"
p307
tp308
Rp309
g13
F76.11812901496887
tp310
a(F45395347453427.0
g3
(g7
S'\xd8\xfa\xd2\xeb\x01\xcf\x1e\xc1'
p311
tp312
Rp313
g13
F76.17062520980835
tp314
a(F21961492906825.0
g3
(g7
S"%Ci\x1a\xe7#'\xc1"
p315
tp316
Rp317
g13
F76.11908292770386
tp318
a(F111708614838289.0
g3
(g7
S'\xe9[\xa6\xa2\x9a\xa4\x1a\xc1'
p319
tp320
Rp321
g13
F76.18215012550354
tp322
a(F92774680142577.0
g3
(g7
S'\xd8=uW\xd1\xb5 \xc1'
p323
tp324
Rp325
g13
F76.22605204582214
tp326
a(F134850779392498.0
g3
(g7
S"\xcb}x\x85)R'\xc1"
p327
tp328
Rp329
g13
F76.43062806129456
tp330
a(F5972034836499.0
g3
(g7
S'P\x82a\x0c\x92\x1a&\xc1'
p331
tp332
Rp333
g13
F76.7482328414917
tp334
a(F46303740711337.0
g3
(g7
S'\xf3\'}a\x8a\xed"\xc1'
p335
tp336
Rp337
g13
F76.82508897781372
tp338
a(F29966888949760.0
g3
(g7
S'\xaa5\xf1\xcc1\xb3"\xc1'
p339
tp340
Rp341
g13
F76.58948802947998
tp342
a(F4675701420093.0
g3
(g7
S'4\xfe\x8d.\x91\\\x1e\xc1'
p343
tp344
Rp345
g13
F76.23183798789978
tp346
a(F110960526177772.0
g3
(g7
S'L\x8d\xfc\xee\x95K$\xc1'
p347
tp348
Rp349
g13
F76.24532794952393
tp350
a(F14242645363189.0
g3
(g7
S'J/\xe8\xe1\x9d\xe3\x12\xc1'
p351
tp352
Rp353
g13
F76.16603088378906
tp354
a(F15090520483754.0
g3
(g7
S'1\x889\xb4M\xc9#\xc1'
p355
tp356
Rp357
g13
F76.18739604949951
tp358
a(F57976424734725.0
g3
(g7
S'\xcf\xba\xcaec2\x13\xc1'
p359
tp360
Rp361
g13
F76.12669897079468
tp362
a(F8857797974638.0
g3
(g7
S'\xd6\x9b3_\xdeE\x1e\xc1'
p363
tp364
Rp365
g13
F76.1245219707489
tp366
a(F465945348144232.0
g3
(g7
S'\xec\xf0\x90\xaa\xe1\xf7&\xc1'
p367
tp368
Rp369
g13
F76.1455647945404
tp370
a(F9143899508604.0
g3
(g7
S'Q\x07\x98\xe3\xf5\x83\x1d\xc1'
p371
tp372
Rp373
g13
F76.15561413764954
tp374
a(F65455069499705.0
g3
(g7
S'\xdcMo\xa9\xaav!\xc1'
p375
tp376
Rp377
g13
F76.15780401229858
tp378
a(F40493804506651.0
g3
(g7
S'B\x95\xd5\xbd,i(\xc1'
p379
tp380
Rp381
g13
F76.1537401676178
tp382
a(F127091271340211.0
g3
(g7
S'\xd4W\xda\xbb\x02\xb6&\xc1'
p383
tp384
Rp385
g13
F76.21683406829834
tp386
a(F7578879615663.0
g3
(g7
S'8\x7fC/+\xe4 \xc1'
p387
tp388
Rp389
g13
F76.12925386428833
tp390
a(F9846314969101.0
g3
(g7
S'I\x9dt\xe7:u$\xc1'
p391
tp392
Rp393
g13
F76.23042798042297
tp394
a(F27723904679148.0
g3
(g7
S'.\xfdD\xf0N\xdb \xc1'
p395
tp396
Rp397
g13
F76.27791500091553
tp398
a(F17497562039448.0
g3
(g7
S'\xde\xc4\xbf\xce;\x03(\xc1'
p399
tp400
Rp401
g13
F76.1907410621643
tp402
a(F6466707218004.0
g3
(g7
S'/\x84jr\xe2w%\xc1'
p403
tp404
Rp405
g13
F76.1935179233551
tp406
a(F107793807239226.0
g3
(g7
S'4u-\xc6\xfb\xab(\xc1'
p407
tp408
Rp409
g13
F76.21904397010803
tp410
aaI80
aI29
aF0.7776598930358887
aa.